ccollections
OrderedDict
p0
((lp1
(lp2
S'down2'
p3
ag0
((lp4
(lp5
F6.6194434907
aF1.4188232421875
aa(lp6
F4.62237347694
aF2.50634765625
aa(lp7
F17.7705842621
aF0.25940704345703125
aa(lp8
F23.9698552928
aF0.16082763671875
aa(lp9
F34.843361273
aF0.18289947509765625
aa(lp10
F5.78545888511
aF1.7138671875
aa(lp11
F12.3475046552
aF0.52734375
aa(lp12
F27.0178567275
aF0.13875961303710938
aa(lp13
F13.4400922127
aF0.457763671875
aa(lp14
F28.8276803068
aF0.133514404296875
aa(lp15
F24.2101530921
aF0.1584625244140625
aa(lp16
F15.1491313306
aF0.36187744140625
aa(lp17
F13.3732260823
aF0.46142578125
aa(lp18
F33.313900794
aF0.1452178955078125
aa(lp19
F13.5748291371
aF0.443115234375
aa(lp20
F7.16932828228
aF1.20684814453125
aa(lp21
F13.7794713832
aF0.4302978515625
aa(lp22
F8.04077458925
aF1.06591796875
aa(lp23
F26.8834395298
aF0.14019012451171875
aa(lp24
F4.33217737299
aF2.63507080078125
aa(lp25
F7.42405019262
aF1.18475341796875
aa(lp26
F30.4534413425
aF0.13685226440429688
aa(lp27
F22.2420332596
aF0.17974853515625
aa(lp28
F29.8519104033
aF0.13494491577148438
aa(lp29
F8.57939553147
aF0.573486328125
aa(lp30
F8.75227464648
aF0.2960357666015625
aa(lp31
F17.8594371834
aF0.2566375732421875
aa(lp32
F10.1648924999
aF0.1924896240234375
aa(lp33
F7.24120079831
aF1.19970703125
aa(lp34
F14.7025058219
aF0.3790283203125
aa(lp35
F14.776018351
aF0.3753662109375
aa(lp36
F7.02771628096
aF1.267547607421875
aa(lp37
F15.2248769873
aF0.3600311279296875
aa(lp38
F8.92863736222
aF0.2482452392578125
aa(lp39
F24.0897045692
aF0.159881591796875
aa(lp40
F35.0175780794
aF0.193603515625
aa(lp41
F20.6387580351
aF0.2001190185546875
aa(lp42
F8.24381422375
aF0.99029541015625
aa(lp43
F9.71870129496
aF0.203399658203125
aa(lp44
F6.29739393343
aF1.49249267578125
aa(lp45
F16.7382082054
aF0.29633331298828125
aa(lp46
F9.62223835545
aF0.206024169921875
aa(lp47
F23.1474406845
aF0.1679229736328125
aa(lp48
F5.99101275032
aF1.656494140625
aa(lp49
F30.0011699553
aF0.13698577880859375
aa(lp50
F22.6902213647
aF0.1745452880859375
aa(lp51
F10.5786752254
aF0.2152252197265625
aa(lp52
F21.5862953693
aF0.18768310546875
aa(lp53
F9.67034954722
aF0.2047119140625
aa(lp54
F19.8314772207
aF0.2150115966796875
aa(lp55
F17.1608689377
aF0.2787933349609375
aa(lp56
F7.80371709974
aF1.1019287109375
aa(lp57
F10.7918408272
aF0.2607421875
aa(lp58
F26.4841870988
aF0.14257431030273438
aa(lp59
F7.35036280549
aF1.195556640625
aa(lp60
F7.88194936367
aF1.1019287109375
aa(lp61
F9.01814695177
aF0.22174072265625
aa(lp62
F31.3785410429
aF0.138427734375
aa(lp63
F18.96096819
aF0.2354888916015625
aa(lp64
F15.073762518
aF0.3674163818359375
aa(lp65
F4.28917835993
aF2.6993408203125
aa(lp66
F21.478900865
aF0.192047119140625
aa(lp67
F7.61151676327
aF1.14154052734375
aa(lp68
F9.91453799148
aF0.199127197265625
aa(lp69
F15.687370831
aF0.336029052734375
aa(lp70
F4.98145210278
aF2.1566162109375
aa(lp71
F5.05654811591
aF2.12091064453125
aa(lp72
F8.45198086345
aF0.796661376953125
aa(lp73
F5.93154897188
aF1.6781005859375
aa(lp74
F23.0322792881
aF0.1698150634765625
aa(lp75
F30.151175805
aF0.13698577880859375
aa(lp76
F28.1176738081
aF0.138427734375
aa(lp77
F12.1641288916
aF0.5320281982421875
aa(lp78
F4.78660361901
aF2.2994384765625
aa(lp79
F16.2447336562
aF0.313873291015625
aa(lp80
F24.5751241762
aF0.1546783447265625
aa(lp81
F17.0754914803
aF0.2806396484375
aa(lp82
F23.3794937774
aF0.1669769287109375
aa(lp83
F6.36052530761
aF1.47821044921875
aa(lp84
F4.37560745116
aF2.57080078125
aa(lp85
F4.39748548841
aF2.57080078125
aa(lp86
F8.88421628081
aF0.2672119140625
aa(lp87
F17.5942023832
aF0.2640228271484375
aa(lp88
F28.6842590117
aF0.13494491577148438
aa(lp89
F7.68782221882
aF1.11273193359375
aa(lp90
F9.15409664434
aF0.2191925048828125
aa(lp91
F5.67118173403
aF1.771728515625
aa(lp92
F10.8458000313
aF0.35919189453125
aa(lp93
F8.20280022263
aF1.01190185546875
aa(lp94
F15.5316658805
aF0.34433746337890625
aa(lp95
F5.47660138938
aF1.82098388671875
aa(lp96
F21.6942268461
aF0.1858062744140625
aa(lp97
F10.9545291766
aF0.4552001953125
aa(lp98
F22.8036724716
aF0.173126220703125
aa(lp99
F4.26783916411
aF2.713623046875
aa(lp100
F4.73909419965
aF2.3983154296875
aa(lp101
F14.9987686747
aF0.3680419921875
aa(lp102
F6.58651093602
aF1.4188232421875
aa(lp103
F32.9832437751
aF0.1414337158203125
aa(lp104
F6.85462832601
aF1.35400390625
aa(lp105
F17.2466732824
aF0.2751007080078125
aa(lp106
F13.9176105838
aF0.4193115234375
aa(lp107
F6.75282859089
aF1.37200927734375
aa(lp108
F5.36842493929
aF1.913818359375
aa(lp109
F27.2887107412
aF0.13780593872070312
aa(lp110
F5.15844009188
aF2.059814453125
aa(lp111
F5.39526706398
aF1.88525390625
aa(lp112
F21.3720406616
aF0.19237518310546875
aa(lp113
F19.6346399552
aF0.2205963134765625
aa(lp114
F19.1510518961
aF0.2308349609375
aa(lp115
F27.5622800663
aF0.13780593872070312
aa(lp116
F32.3317429682
aF0.141143798828125
aa(lp117
F20.2310914149
aF0.2057037353515625
aa(lp118
F4.53107014514
aF2.47796630859375
aa(lp119
F8.70873099153
aF0.300506591796875
aa(lp120
F27.1529460111
aF0.1373291015625
aa(lp121
F10.064000891
aF0.1951446533203125
aa(lp122
F12.6592946207
aF0.50537109375
aa(lp123
F5.23620422107
aF1.97808837890625
aa(lp124
F15.3010013722
aF0.35726165771484375
aa(lp125
F4.46377813183
aF2.456787109375
aa(lp126
F13.1746170829
aF0.4779052734375
aa(lp127
F12.5336448313
aF0.5218505859375
aa(lp128
F32.6558686915
aF0.141143798828125
aa(lp129
F24.9455972451
aF0.1518402099609375
aa(lp130
F7.13365998236
aF1.210418701171875
aa(lp131
F24.6979997971
aF0.1537322998046875
aa(lp132
F26.0908640617
aF0.14543533325195312
aa(lp133
F9.81613127544
aF0.2001190185546875
aa(lp134
F27.4251542949
aF0.13780593872070312
aa(lp135
F5.4493546163
aF1.8653564453125
aa(lp136
F33.6478726494
aF0.14947509765625
aa(lp137
F25.8318992715
aF0.1442718505859375
aa(lp138
F9.86521193182
aF0.2004547119140625
aa(lp139
F19.4397563973
aF0.2261810302734375
aa(lp140
F20.8456615844
aF0.19988250732421875
aa(lp141
F18.8666350149
aF0.2392120361328125
aa(lp142
F32.4934016831
aF0.1400146484375
aa(lp143
F25.4482635179
aF0.14781951904296875
aa(lp144
F16.6549335377
aF0.30002593994140625
aa(lp145
F7.31379383631
aF1.1854248046875
aa(lp146
F6.08132801641
aF1.627685546875
aa(lp147
F6.68580341169
aF1.360382080078125
aa(lp148
F17.3329066488
aF0.27048492431640625
aa(lp149
F6.42428957382
aF1.4908447265625
aa(lp150
F10.0139312348
aF0.19647216796875
aa(lp151
F9.38524905587
aF0.2114105224609375
aa(lp152
F5.6995376427
aF1.74957275390625
aa(lp153
F5.5591618399
aF1.74169921875
aa(lp154
F4.71551661657
aF2.4415283203125
aa(lp155
F17.9487343693
aF0.2566375732421875
aa(lp156
F14.1980574046
aF0.40283203125
aa(lp157
F18.1286704313
aF0.25689697265625
aa(lp158
F17.4195711821
aF0.2677154541015625
aa(lp159
F11.7467731264
aF0.589599609375
aa(lp160
F4.8105366371
aF2.26373291015625
aa(lp161
F11.6883314691
aF0.596923828125
aa(lp162
F32.819148035
aF0.1404876708984375
aa(lp163
F30.3019316841
aF0.13698577880859375
aa(lp164
F7.53596867728
aF1.16314697265625
aa(lp165
F18.4019624042
aF0.2522430419921875
aa(lp166
F16.5720731719
aF0.30279541015625
aa(lp167
F7.57364852066
aF1.1282958984375
aa(lp168
F10.2157169624
aF0.191162109375
aa(lp169
F16.9060087427
aF0.28710174560546875
aa(lp170
F23.8506022814
aF0.161773681640625
aa(lp171
F28.9718187083
aF0.133514404296875
aa(lp172
F33.9851925727
aF0.15436935424804688
aa(lp173
F30.9125307774
aF0.13794708251953125
aa(lp174
F4.50852750761
aF2.4708251953125
aa(lp175
F5.87267540098
aF1.7069091796875
aa(lp176
F22.4650096431
aF0.17596435546875
aa(lp177
F9.33855627449
aF0.21270751953125
aa(lp178
F5.90203877799
aF1.6925048828125
aa(lp179
F11.1196700733
aF0.553436279296875
aa(lp180
F4.24660613344
aF2.7421875
aa(lp181
F11.9238571997
aF0.5694580078125
aa(lp182
F9.29209579552
aF0.2140045166015625
aa(lp183
F7.64957434708
aF1.1307373046875
aa(lp184
F5.2101534538
aF1.99951171875
aa(lp185
F4.66871277104
aF2.4847412109375
aa(lp186
F7.4984762958
aF1.166748046875
aa(lp187
F6.05107265314
aF1.6492919921875
aa(lp188
F13.3066926192
aF0.4669189453125
aa(lp189
F5.18423229234
aF2.02093505859375
aa(lp190
F9.52673285854
aF0.208648681640625
aa(lp191
F29.4085724968
aF0.13410186767578125
aa(lp192
F12.9789576736
aF0.4888916015625
aa(lp193
F28.5415512554
aF0.13589859008789062
aa(lp194
F29.2622611908
aF0.13410186767578125
aa(lp195
F4.41947291585
aF2.4921875
aa(lp196
F5.28869716839
aF1.93524169921875
aa(lp197
F4.35383825986
aF2.599365234375
aa(lp198
F8.32645846134
aF0.95428466796875
aa(lp199
F26.6166080343
aF0.14209747314453125
aa(lp200
F10.6315686016
aF0.22008514404296875
aa(lp201
F16.0834966027
aF0.31585693359375
aa(lp202
F15.8446367235
aF0.32772064208984375
aa(lp203
F20.0302877799
aF0.2094268798828125
aa(lp204
F11.2873004896
aF0.5955810546875
aa(lp205
F6.99275251837
aF1.27825927734375
aa(lp206
F18.2193137835
aF0.2559661865234375
aa(lp207
F6.45641102169
aF1.4620361328125
aa(lp208
F15.6093242099
aF0.33879852294921875
aa(lp209
F19.732813155
aF0.217803955078125
aa(lp210
F10.4215687735
aF0.18731689453125
aa(lp211
F4.44157028043
aF2.47802734375
aa(lp212
F31.2224288985
aF0.138427734375
aa(lp213
F21.9117114703
aF0.1820526123046875
aa(lp214
F4.90747135861
aF2.1851806640625
aa(lp215
F11.6301805663
aF0.6005859375
aa(lp216
F7.06285486237
aF1.2425537109375
aa(lp217
F7.2774068023
aF1.196136474609375
aa(lp218
F5.72803533091
aF1.771728515625
aa(lp219
F9.10855387497
aF0.2178955078125
aa(lp220
F6.2348891695
aF1.52105712890625
aa(lp221
F16.1639140858
aF0.31756591796875
aa(lp222
F8.08097846219
aF1.037109375
aa(lp223
F24.3312038575
aF0.15704345703125
aa(lp224
F6.71923242875
aF1.368408203125
aa(lp225
F8.62229250912
aF0.4903564453125
aa(lp226
F4.22547873975
aF2.713623046875
aa(lp227
F5.5869576491
aF1.7275390625
aa(lp228
F12.1036108374
aF0.533843994140625
aa(lp229
F31.6931109169
aF0.13875961303710938
aa(lp230
F11.864534527
aF0.57861328125
aa(lp231
F19.9306346068
aF0.21221923828125
aa(lp232
F16.9905387864
aF0.28340911865234375
aa(lp233
F12.9143857449
aF0.49072265625
aa(lp234
F13.043852462
aF0.4888916015625
aa(lp235
F5.00635936329
aF2.142333984375
aa(lp236
F5.81438617953
aF1.714111328125
aa(lp237
F9.47933617765
aF0.2106170654296875
aa(lp238
F5.3417163575
aF1.92095947265625
aa(lp239
F25.5755048355
aF0.1461639404296875
aa(lp240
F21.8026979804
aF0.18439865112304688
aa(lp241
F4.93200871541
aF2.1851806640625
aa(lp242
F18.0384780411
aF0.258758544921875
aa(lp243
F10.1143208955
aF0.193817138671875
aa(lp244
F6.26606361535
aF1.4996337890625
aa(lp245
F22.9176908339
aF0.17218017578125
aa(lp246
F34.4975235989
aF0.16750717163085938
aa(lp247
F22.0212700276
aF0.18017578125
aa(lp248
F6.2038698204
aF1.54248046875
aa(lp249
F4.83458932029
aF2.24945068359375
aa(lp250
F13.8483687401
aF0.4229736328125
aa(lp251
F34.1551185356
aF0.15812301635742188
aa(lp252
F8.36809075365
aF0.903350830078125
aa(lp253
F34.3258941283
aF0.16234588623046875
aa(lp254
F26.221318382
aF0.14448165893554688
aa(lp255
F27.7000914667
aF0.13875961303710938
aa(lp256
F6.95796270485
aF1.29254150390625
aa(lp257
F21.0546393417
aF0.1970672607421875
aa(lp258
F4.95666875898
aF2.17803955078125
aa(lp259
F19.2468071556
aF0.2299041748046875
aa(lp260
F29.7033934361
aF0.1355438232421875
aa(lp261
F9.57436652283
aF0.20733642578125
aa(lp262
F26.3524249739
aF0.14352798461914062
aa(lp263
F6.02096781407
aF1.6636962890625
aa(lp264
F16.8218992464
aF0.29079437255859375
aa(lp265
F14.924147935
aF0.3711090087890625
aa(lp266
F14.6293590268
aF0.3826904296875
aa(lp267
F34.6700112169
aF0.1740570068359375
aa(lp268
F6.39232793415
aF1.4710693359375
aa(lp269
F4.55372549587
aF2.50634765625
aa(lp270
F11.0093018225
aF0.4913330078125
aa(lp271
F5.96120671674
aF1.64959716796875
aa(lp272
F11.1752684237
aF0.57977294921875
aa(lp273
F11.8055069921
aF0.5841064453125
aa(lp274
F5.75667550757
aF1.7645263671875
aa(lp275
F33.4804702979
aF0.1471099853515625
aa(lp276
F8.28503329487
aF0.9722900390625
aa(lp277
F14.8498984428
aF0.3717041015625
aa(lp278
F23.263177888
aF0.1679229736328125
aa(lp279
F8.40993120741
aF0.8602294921875
aa(lp280
F6.55374222489
aF1.42108154296875
aa(lp281
F30.758737092
aF0.13589859008789062
aa(lp282
F13.7109167992
aF0.435791015625
aa(lp283
F6.52113654218
aF1.4404296875
aa(lp284
F13.2404901683
aF0.4742431640625
aa(lp285
F12.7225910938
aF0.501708984375
aa(lp286
F4.31062425173
aF2.6279296875
aa(lp287
F19.3430411913
aF0.2280426025390625
aa(lp288
F8.16199027128
aF1.01910400390625
aa(lp289
F15.7658076851
aF0.3341827392578125
aa(lp290
F7.72626132991
aF1.109130859375
aa(lp291
F12.8501350695
aF0.498046875
aa(lp292
F10.318129525
aF0.19000244140625
aa(lp293
F5.03139116011
aF2.142333984375
aa(lp294
F6.11173465649
aF1.6060791015625
aa(lp295
F12.4712883893
aF0.523681640625
aa(lp296
F15.454393911
aF0.3489532470703125
aa(lp297
F5.31514065423
aF1.9281005859375
aa(lp298
F13.6427032828
aF0.439453125
aa(lp299
F13.9871986367
aF0.41748046875
aa(lp300
F17.506669038
aF0.265869140625
aa(lp301
F4.59937659397
aF2.520751953125
aa(lp302
F14.4841553692
aF0.38818359375
aa(lp303
F20.4339081063
aF0.2010498046875
aa(lp304
F23.4963912463
aF0.1650848388671875
aa(lp305
F26.7496910745
aF0.141143798828125
aa(lp306
F33.8161120127
aF0.1527862548828125
aa(lp307
F11.4574579554
aF0.5937652587890625
aa(lp308
F33.148159994
aF0.1433258056640625
aa(lp309
F21.1599125385
aF0.19612884521484375
aa(lp310
F11.343736992
aF0.5937652587890625
aa(lp311
F11.2311447658
aF0.599212646484375
aa(lp312
F8.79603601972
aF0.2900390625
aa(lp313
F8.97328054903
aF0.2230224609375
aa(lp314
F7.20517492369
aF1.203277587890625
aa(lp315
F31.5354337482
aF0.138427734375
aa(lp316
F5.84345811043
aF1.7069091796875
aa(lp317
F7.84273568524
aF1.109130859375
aa(lp318
F23.7319425685
aF0.1627197265625
aa(lp319
F12.0433938681
aF0.5429229736328125
aa(lp320
F10.3697201726
aF0.18865966796875
aa(lp321
F9.19986712756
aF0.2178955078125
aa(lp322
F5.08183085649
aF2.085205078125
aa(lp323
F6.92334597497
aF1.310791015625
aa(lp324
F11.5147452452
aF0.596923828125
aa(lp325
F6.78659273385
aF1.3612060546875
aa(lp326
F5.26238524217
aF1.9566650390625
aa(lp327
F28.2582621771
aF0.13780593872070312
aa(lp328
F16.4075871111
aF0.30741119384765625
aa(lp329
F12.5963130554
aF0.5145263671875
aa(lp330
F8.49424076777
aF0.72711181640625
aa(lp331
F10.7381500768
aF0.2245330810546875
aa(lp332
F22.1313763777
aF0.17970657348632812
aa(lp333
F13.1090717243
aF0.4833984375
aa(lp334
F28.399553488
aF0.13698577880859375
aa(lp335
F4.64548534432
aF2.4847412109375
aa(lp336
F25.0703252313
aF0.1508941650390625
aa(lp337
F7.46117044358
aF1.166748046875
aa(lp338
F14.4120948947
aF0.3936767578125
aa(lp339
F18.3104103524
aF0.2541046142578125
aa(lp340
F5.53150431831
aF1.748779296875
aa(lp341
F20.3322468719
aF0.202911376953125
aa(lp342
F25.7033823597
aF0.1452178955078125
aa(lp343
F4.57649412335
aF2.485107421875
aa(lp344
F16.0034792067
aF0.318603515625
aa(lp345
F18.7727711591
aF0.240142822265625
aa(lp346
F6.88890146764
aF1.3323974609375
aa(lp347
F14.2690476916
aF0.4010009765625
aa(lp348
F6.14229332977
aF1.5853271484375
aa(lp349
F24.8214897961
aF0.1527862548828125
aa(lp350
F9.2458664632
aF0.21595001220703125
aa(lp351
F11.0643483316
aF0.5203857421875
aa(lp352
F4.85876226689
aF2.19232177734375
aa(lp353
F25.1956768574
aF0.1499481201171875
aa(lp354
F20.1304392188
aF0.20738983154296875
aa(lp355
F10.2667955473
aF0.19134521484375
aa(lp356
F5.10724001077
aF2.1102294921875
aa(lp357
F4.48609702249
aF2.47796630859375
aa(lp358
F27.9777848836
aF0.13828277587890625
aa(lp359
F18.5864420773
aF0.2466583251953125
aa(lp360
F6.4886930768
aF1.4620361328125
aa(lp361
F6.3288809031
aF1.47821044921875
aa(lp362
F7.09816913668
aF1.23541259765625
aa(lp363
F12.2249495361
aF0.5364990234375
aa(lp364
F24.4528598768
aF0.156097412109375
aa(lp365
F8.53671197161
aF0.647003173828125
aa(lp366
F11.9834764857
aF0.5584716796875
aa(lp367
F9.96411068144
aF0.1977996826171875
aa(lp368
F4.76278967065
aF2.3280029296875
aa(lp369
F14.0571346299
aF0.4119873046875
aa(lp370
F8.66540397167
aF0.34814453125
aa(lp371
F11.400455677
aF0.5901336669921875
aa(lp372
F12.2860742838
aF0.526580810546875
aa(lp373
F20.5360776468
aF0.20175933837890625
aa(lp374
F22.5773346913
aF0.17596435546875
aa(lp375
F4.20445645746
aF2.7564697265625
aa(lp376
F13.5072926737
aF0.450439453125
aa(lp377
F10.4736766174
aF0.18597412109375
aa(lp378
F7.38711461952
aF1.18475341796875
aa(lp379
F8.00077073557
aF1.06951904296875
aa(lp380
F5.61489243735
aF1.74957275390625
aa(lp381
F11.5723189714
aF0.5973968505859375
aa(lp382
F7.96096590604
aF1.07672119140625
aa(lp383
F25.9610587679
aF0.1442718505859375
aa(lp384
F21.2657121011
aF0.19425201416015625
aa(lp385
F25.3216552417
aF0.1480560302734375
aa(lp386
F14.3403929301
aF0.3973388671875
aa(lp387
F15.3775063791
aF0.3544921875
aa(lp388
F6.65254070815
aF1.4188232421875
aa(lp389
F12.4092421784
aF0.5255126953125
aa(lp390
F18.4939722162
aF0.2485198974609375
aa(lp391
F23.6138732025
aF0.1641387939453125
aa(lp392
F5.13277621083
aF2.06378173828125
aa(lp393
F4.6920563349
aF2.4775390625
aa(lp394
F19.0557730309
aF0.2336273193359375
aa(lp395
F32.1708885256
aF0.14066696166992188
aa(lp396
F9.76729480144
aF0.2014312744140625
aa(lp397
F4.88305607822
aF2.199462890625
aa(lp398
F5.50398439633
aF1.799560546875
aa(lp399
F20.9498898923
aF0.19800567626953125
aa(lp400
F31.0670934313
aF0.13780593872070312
aa(lp401
F6.82052569752
aF1.3612060546875
aa(lp402
F22.3532434259
aF0.176422119140625
aa(lp403
F20.7419518252
aF0.2008209228515625
aa(lp404
F5.64296689953
aF1.74957275390625
aa(lp405
F29.1166778018
aF0.13410186767578125
aa(lp406
F9.06323768653
aF0.2217864990234375
aa(lp407
F5.4222433993
aF1.86383056640625
aa(lp408
F17.6821733951
aF0.262176513671875
aa(lp409
F10.5260450004
aF0.2068939208984375
aa(lp410
F19.5369551793
aF0.2243194580078125
aa(lp411
F29.5556153593
aF0.13399124145507812
aa(lp412
F27.838591924
aF0.13828277587890625
aa(lp413
F14.556576146
aF0.38818359375
aa(lp414
F10.6847264446
aF0.22247314453125
aa(lp415
F9.43217530115
aF0.210113525390625
aa(lp416
F6.17300479642
aF1.56390380859375
aa(lp417
F30.6057085492
aF0.13698577880859375
aa(lp418
F32.0108343538
aF0.13971328735351562
aa(lp419
F14.1274203031
aF0.4119873046875
aa(lp420
F8.84001619982
aF0.2806396484375
aa(lp421
F15.9238599072
aF0.3231048583984375
aa(lp422
F16.3259573245
aF0.31295013427734375
aa(lp423
F12.7862040493
aF0.4998779296875
aa(lp424
F10.9000290315
aF0.41326904296875
aa(lp425
F16.4896250466
aF0.306488037109375
aa(lp426
F7.92135911049
aF1.09112548828125
aa(lp427
F31.8515764715
aF0.1392364501953125
aa(lp428
F8.1213833545
aF1.0299072265625
aa(lp429
F18.6793742877
aF0.2429351806640625
aa(lp430
F7.76489263656
aF1.12353515625
aatp431
Rp432
aa(lp433
S'down1'
p434
ag0
((lp435
(lp436
F6.6194434907
aF2.015134811401367
aa(lp437
F4.62237347694
aF3.5368309020996094
aa(lp438
F17.7705842621
aF0.36341774463653564
aa(lp439
F23.9698552928
aF0.22369146347045898
aa(lp440
F34.843361273
aF0.25666362047195435
aa(lp441
F5.78545888511
aF2.4456024169921875
aa(lp442
F12.3475046552
aF0.74212646484375
aa(lp443
F27.0178567275
aF0.19215604662895203
aa(lp444
F13.4400922127
aF0.6442070007324219
aa(lp445
F28.8276803068
aF0.1848924160003662
aa(lp446
F24.2101530921
aF0.22040188312530518
aa(lp447
F15.1491313306
aF0.5069742202758789
aa(lp448
F13.3732260823
aF0.6493606567382812
aa(lp449
F33.313900794
aF0.20077252388000488
aa(lp450
F13.5748291371
aF0.6235923767089844
aa(lp451
F7.16932828228
aF1.722111701965332
aa(lp452
F13.7794713832
aF0.6055545806884766
aa(lp453
F8.04077458925
aF1.5139083862304688
aa(lp454
F26.8834395298
aF0.19413703680038452
aa(lp455
F4.33217737299
aF3.735656261444092
aa(lp456
F7.42405019262
aF1.6718640327453613
aa(lp457
F30.4534413425
aF0.18951472640037537
aa(lp458
F22.2420332596
aF0.24851322174072266
aa(lp459
F29.8519104033
aF0.1868734061717987
aa(lp460
F8.57939553147
aF0.846705436706543
aa(lp461
F8.75227464648
aF0.4847266674041748
aa(lp462
F17.8594371834
aF0.35953783988952637
aa(lp463
F10.1648924999
aF0.3122597932815552
aa(lp464
F7.24120079831
aF1.7119216918945312
aa(lp465
F14.7025058219
aF0.5334033966064453
aa(lp466
F14.776018351
aF0.5282497406005859
aa(lp467
F7.02771628096
aF1.8087267875671387
aa(lp468
F15.2248769873
aF0.504387617111206
aa(lp469
F8.92863736222
aF0.4064748287200928
aa(lp470
F24.0897045692
aF0.22237563133239746
aa(lp471
F35.0175780794
aF0.2716846466064453
aa(lp472
F20.6387580351
aF0.2799692749977112
aa(lp473
F8.24381422375
aF1.4065027236938477
aa(lp474
F9.71870129496
aF0.3321874141693115
aa(lp475
F6.29739393343
aF2.1297121047973633
aa(lp476
F16.7382082054
aF0.4151498079299927
aa(lp477
F9.62223835545
aF0.3364737033843994
aa(lp478
F23.1474406845
aF0.232163667678833
aa(lp479
F5.99101275032
aF2.3375606536865234
aa(lp480
F30.0011699553
aF0.18888205289840698
aa(lp481
F22.6902213647
aF0.24277102947235107
aa(lp482
F10.5786752254
aF0.3432738780975342
aa(lp483
F21.5862953693
aF0.26220083236694336
aa(lp484
F9.67034954722
aF0.33433055877685547
aa(lp485
F19.8314772207
aF0.3008041977882385
aa(lp486
F17.1608689377
aF0.3905770778656006
aa(lp487
F7.80371709974
aF1.5549860000610352
aa(lp488
F10.7918408272
aF0.4050331115722656
aa(lp489
F26.4841870988
aF0.19743868708610535
aa(lp490
F7.35036280549
aF1.6871089935302734
aa(lp491
F7.88194936367
aF1.5549860000610352
aa(lp492
F9.01814695177
aF0.3671755790710449
aa(lp493
F31.3785410429
aF0.1908702850341797
aa(lp494
F18.96096819
aF0.33046257495880127
aa(lp495
F15.073762518
aF0.5147340297698975
aa(lp496
F4.28917835993
aF3.8518238067626953
aa(lp497
F21.478900865
aF0.2655167579650879
aa(lp498
F7.61151676327
aF1.6213140487670898
aa(lp499
F9.91453799148
aF0.3230273723602295
aa(lp500
F15.687370831
aF0.470761775970459
aa(lp501
F4.98145210278
aF3.057366371154785
aa(lp502
F5.05654811591
aF3.026432991027832
aa(lp503
F8.45198086345
aF1.140059232711792
aa(lp504
F5.93154897188
aF2.383382797241211
aa(lp505
F23.0322792881
aF0.23619186878204346
aa(lp506
F30.151175805
aF0.18888205289840698
aa(lp507
F28.1176738081
aF0.1908702850341797
aa(lp508
F12.1641288916
aF0.7521464824676514
aa(lp509
F4.78660361901
aF3.2811832427978516
aa(lp510
F16.2447336562
aF0.43972253799438477
aa(lp511
F24.5751241762
aF0.21513855457305908
aa(lp512
F17.0754914803
aF0.39316368103027344
aa(lp513
F23.3794937774
aF0.23085570335388184
aa(lp514
F6.36052530761
aF2.1093320846557617
aa(lp515
F4.37560745116
aF3.644542694091797
aa(lp516
F4.39748548841
aF3.644542694091797
aa(lp517
F8.88421628081
aF0.4345989227294922
aa(lp518
F17.5942023832
aF0.3698842525482178
aa(lp519
F28.6842590117
aF0.1868734061717987
aa(lp520
F7.68782221882
aF1.5702309608459473
aa(lp521
F9.15409664434
aF0.3604387044906616
aa(lp522
F5.67118173403
aF2.500173568725586
aa(lp523
F10.8458000313
aF0.5311298370361328
aa(lp524
F8.20280022263
aF1.4279446601867676
aa(lp525
F15.5316658805
aF0.4824014902114868
aa(lp526
F5.47660138938
aF2.598452568054199
aa(lp527
F21.6942268461
aF0.2595788240432739
aa(lp528
F10.9545291766
aF0.6577177047729492
aa(lp529
F22.8036724716
aF0.23935747146606445
aa(lp530
F4.26783916411
aF3.872203826904297
aa(lp531
F4.73909419965
aF3.4062938690185547
aa(lp532
F14.9987686747
aF0.5179424285888672
aa(lp533
F6.58651093602
aF2.002171516418457
aa(lp534
F32.9832437751
aF0.19671690464019775
aa(lp535
F6.85462832601
aF1.9107017517089844
aa(lp536
F17.2466732824
aF0.3854038715362549
aa(lp537
F13.9176105838
aF0.5900936126708984
aa(lp538
F6.75282859089
aF1.936110019683838
aa(lp539
F5.36842493929
aF2.7309226989746094
aa(lp540
F27.2887107412
aF0.1908353865146637
aa(lp541
F5.15844009188
aF2.906705856323242
aa(lp542
F5.39526706398
aF2.6726646423339844
aa(lp543
F21.3720406616
aF0.26794329285621643
aa(lp544
F19.6346399552
aF0.3095637559890747
aa(lp545
F19.1510518961
aF0.3239316940307617
aa(lp546
F27.5622800663
aF0.1908353865146637
aa(lp547
F32.3317429682
aF0.19487988948822021
aa(lp548
F20.2310914149
aF0.28866493701934814
aa(lp549
F4.53107014514
aF3.535933494567871
aa(lp550
F8.70873099153
aF0.4954209327697754
aa(lp551
F27.1529460111
aF0.19017505645751953
aa(lp552
F10.064000891
aF0.3165668249130249
aa(lp553
F12.6592946207
aF0.7112045288085938
aa(lp554
F5.23620422107
aF2.8042731285095215
aa(lp555
F15.3010013722
aF0.5005077123641968
aa(lp556
F4.46377813183
aF3.5223655700683594
aa(lp557
F13.1746170829
aF0.6725521087646484
aa(lp558
F12.5336448313
aF0.7343959808349609
aa(lp559
F32.6558686915
aF0.19545769691467285
aa(lp560
F24.9455972451
aF0.2111910581588745
aa(lp561
F7.13365998236
aF1.7159721851348877
aa(lp562
F24.6979997971
aF0.21382272243499756
aa(lp563
F26.0908640617
aF0.20020991563796997
aa(lp564
F9.81613127544
aF0.32837480306625366
aa(lp565
F27.4251542949
aF0.1908353865146637
aa(lp566
F5.4493546163
aF2.632296562194824
aa(lp567
F33.6478726494
aF0.20665836334228516
aa(lp568
F25.8318992715
aF0.20066440105438232
aa(lp569
F9.86521193182
aF0.32518088817596436
aa(lp570
F19.4397563973
aF0.31740081310272217
aa(lp571
F20.8456615844
aF0.27755534648895264
aa(lp572
F18.8666350149
aF0.333634614944458
aa(lp573
F32.4934016831
aF0.19474315643310547
aa(lp574
F25.4482635179
aF0.20470231771469116
aa(lp575
F16.6549335377
aF0.4203230142593384
aa(lp576
F7.31379383631
aF1.6805391311645508
aa(lp577
F6.08132801641
aF2.3043432235717773
aa(lp578
F6.68580341169
aF1.9411969184875488
aa(lp579
F17.3329066488
aF0.37893736362457275
aa(lp580
F6.42428957382
aF2.103804588317871
aa(lp581
F10.0139312348
aF0.31872034072875977
aa(lp582
F9.38524905587
aF0.34764206409454346
aa(lp583
F5.6995376427
aF2.480313777923584
aa(lp584
F5.5591618399
aF2.4971237182617188
aa(lp585
F4.71551661657
aF3.456514835357666
aa(lp586
F17.9487343693
aF0.35953783988952637
aa(lp587
F14.1980574046
aF0.5669021606445312
aa(lp588
F18.1286704313
aF0.35830020904541016
aa(lp589
F17.4195711821
aF0.3750574588775635
aa(lp590
F11.7467731264
aF0.8297386169433594
aa(lp591
F4.8105366371
aF3.2302331924438477
aa(lp592
F11.6883314691
aF0.8347606658935547
aa(lp593
F32.819148035
aF0.19540107250213623
aa(lp594
F30.3019316841
aF0.18888205289840698
aa(lp595
F7.53596867728
aF1.641374111175537
aa(lp596
F18.4019624042
aF0.3518092632293701
aa(lp597
F16.5720731719
aF0.42420291900634766
aa(lp598
F7.57364852066
aF1.6100215911865234
aa(lp599
F10.2157169624
aF0.3101062774658203
aa(lp600
F16.9060087427
aF0.4022167921066284
aa(lp601
F23.8506022814
aF0.2250072956085205
aa(lp602
F28.9718187083
aF0.1848924160003662
aa(lp603
F33.9851925727
aF0.2156601846218109
aa(lp604
F30.9125307774
aF0.19020754098892212
aa(lp605
F4.50852750761
aF3.502810478210449
aa(lp606
F5.87267540098
aF2.4087038040161133
aa(lp607
F22.4650096431
aF0.24474477767944336
aa(lp608
F9.33855627449
aF0.3497748374938965
aa(lp609
F5.90203877799
aF2.3883771896362305
aa(lp610
F11.1196700733
aF0.7897257804870605
aa(lp611
F4.24660613344
aF3.9129638671875
aa(lp612
F11.9238571997
aF0.8013935089111328
aa(lp613
F9.29209579552
aF0.3519076108932495
aa(lp614
F7.64957434708
aF1.5956392288208008
aa(lp615
F5.2101534538
aF2.8532028198242188
aa(lp616
F4.66871277104
aF3.506340980529785
aa(lp617
F7.4984762958
aF1.6571159362792969
aa(lp618
F6.05107265314
aF2.327397346496582
aa(lp619
F13.3066926192
aF0.6570911407470703
aa(lp620
F5.18423229234
aF2.8650155067443848
aa(lp621
F9.52673285854
aF0.3407599925994873
aa(lp622
F29.4085724968
aF0.18490558862686157
aa(lp623
F12.9789576736
aF0.6880130767822266
aa(lp624
F28.5415512554
aF0.18819406628608704
aa(lp625
F29.2622611908
aF0.18490558862686157
aa(lp626
F4.41947291585
aF3.5731201171875
aa(lp627
F5.28869716839
aF2.7614927291870117
aa(lp628
F4.35383825986
aF3.685037612915039
aa(lp629
F8.32645846134
aF1.3553571701049805
aa(lp630
F26.6166080343
aF0.19677835702896118
aa(lp631
F10.6315686016
aF0.35102522373199463
aa(lp632
F16.0834966027
aF0.4445028305053711
aa(lp633
F15.8446367235
aF0.45912206172943115
aa(lp634
F20.0302877799
aF0.2938896417617798
aa(lp635
F11.2873004896
aF0.8419933319091797
aa(lp636
F6.99275251837
aF1.8240118026733398
aa(lp637
F18.2193137835
aF0.35700201988220215
aa(lp638
F6.45641102169
aF2.076509475708008
aa(lp639
F15.6093242099
aF0.47464168071746826
aa(lp640
F19.732813155
aF0.305645227432251
aa(lp641
F10.4215687735
aF0.3018622398376465
aa(lp642
F4.44157028043
aF3.5294532775878906
aa(lp643
F31.2224288985
aF0.1908702850341797
aa(lp644
F21.9117114703
aF0.25433480739593506
aa(lp645
F4.90747135861
aF3.118143081665039
aa(lp646
F11.6301805663
aF0.8451995849609375
aa(lp647
F7.06285486237
aF1.773061752319336
aa(lp648
F7.2774068023
aF1.7068266868591309
aa(lp649
F5.72803533091
aF2.500173568725586
aa(lp650
F9.10855387497
aF0.362551212310791
aa(lp651
F6.2348891695
aF2.1704721450805664
aa(lp652
F16.1639140858
aF0.44489574432373047
aa(lp653
F8.08097846219
aF1.4635162353515625
aa(lp654
F24.3312038575
aF0.2184281349182129
aa(lp655
F6.71923242875
aF1.9310283660888672
aa(lp656
F8.62229250912
aF0.7367134094238281
aa(lp657
F4.22547873975
aF3.847017288208008
aa(lp658
F5.5869576491
aF2.4768218994140625
aa(lp659
F12.1036108374
aF0.7547135353088379
aa(lp660
F31.6931109169
aF0.19215604662895203
aa(lp661
F11.864534527
aF0.8142776489257812
aa(lp662
F19.9306346068
aF0.2978081703186035
aa(lp663
F16.9905387864
aF0.3970435857772827
aa(lp664
F12.9143857449
aF0.6905899047851562
aa(lp665
F13.043852462
aF0.6880130767822266
aa(lp666
F5.00635936329
aF3.037118911743164
aa(lp667
F5.81438617953
aF2.4188671112060547
aa(lp668
F9.47933617765
aF0.3439747095108032
aa(lp669
F5.3417163575
aF2.74111270904541
aa(lp670
F25.5755048355
aF0.20329606533050537
aa(lp671
F21.8026979804
aF0.25761231780052185
aa(lp672
F4.93200871541
aF3.0978612899780273
aa(lp673
F18.0384780411
aF0.36089658737182617
aa(lp674
F10.1143208955
aF0.31441330909729004
aa(lp675
F6.26606361535
aF2.139902114868164
aa(lp676
F22.9176908339
aF0.23804950714111328
aa(lp677
F34.4975235989
aF0.2325991988182068
aa(lp678
F22.0212700276
aF0.25095176696777344
aa(lp679
F6.2038698204
aF2.2010421752929688
aa(lp680
F4.83458932029
aF3.209853172302246
aa(lp681
F13.8483687401
aF0.5952472686767578
aa(lp682
F34.1551185356
aF0.22090420126914978
aa(lp683
F8.36809075365
aF1.2806518077850342
aa(lp684
F34.3258941283
aF0.226803719997406
aa(lp685
F26.221318382
aF0.200080007314682
aa(lp686
F27.7000914667
aF0.19215604662895203
aa(lp687
F6.95796270485
aF1.8443918228149414
aa(lp688
F21.0546393417
aF0.2753108739852905
aa(lp689
F4.95666875898
aF3.087737560272217
aa(lp690
F19.2468071556
aF0.32065272331237793
aa(lp691
F29.7033934361
aF0.18689382076263428
aa(lp692
F9.57436652283
aF0.33861684799194336
aa(lp693
F26.3524249739
aF0.19875934720039368
aa(lp694
F6.02096781407
aF2.347723960876465
aa(lp695
F16.8218992464
aF0.4073899984359741
aa(lp696
F14.924147935
aF0.5199072360992432
aa(lp697
F14.6293590268
aF0.5419454574584961
aa(lp698
F34.6700112169
aF0.2442549467086792
aa(lp699
F6.39232793415
aF2.099142074584961
aa(lp700
F4.55372549587
aF3.5368309020996094
aa(lp701
F11.0093018225
aF0.703120231628418
aa(lp702
F5.96120671674
aF2.3538923263549805
aa(lp703
F11.1752684237
aF0.8234434127807617
aa(lp704
F11.8055069921
aF0.8220081329345703
aa(lp705
F5.75667550757
aF2.4900102615356445
aa(lp706
F33.4804702979
aF0.20338845252990723
aa(lp707
F8.28503329487
aF1.3720464706420898
aa(lp708
F14.8498984428
aF0.5263872146606445
aa(lp709
F23.263177888
aF0.232163667678833
aa(lp710
F8.40993120741
aF1.2333354949951172
aa(lp711
F6.55374222489
aF2.0278120040893555
aa(lp712
F30.758737092
aF0.18819406628608704
aa(lp713
F13.7109167992
aF0.6132850646972656
aa(lp714
F6.52113654218
aF2.0326614379882812
aa(lp715
F13.2404901683
aF0.6673984527587891
aa(lp716
F12.7225910938
aF0.7060508728027344
aa(lp717
F4.31062425173
aF3.7499237060546875
aa(lp718
F19.3430411913
aF0.320013165473938
aa(lp719
F8.16199027128
aF1.438107967376709
aa(lp720
F15.7658076851
aF0.46817517280578613
aa(lp721
F7.72626132991
aF1.5651493072509766
aa(lp722
F12.8501350695
aF0.700897216796875
aa(lp723
F10.318129525
aF0.30619001388549805
aa(lp724
F5.03139116011
aF3.037118911743164
aa(lp725
F6.11173465649
aF2.2664175033569336
aa(lp726
F12.4712883893
aF0.7369728088378906
aa(lp727
F15.454393911
aF0.48886799812316895
aa(lp728
F5.31514065423
aF2.7334070205688477
aa(lp729
F13.6427032828
aF0.618438720703125
aa(lp730
F13.9871986367
aF0.5875167846679688
aa(lp731
F17.506669038
aF0.3724708557128906
aa(lp732
F4.59937659397
aF3.557157516479492
aa(lp733
F14.4841553692
aF0.5462875366210938
aa(lp734
F20.4339081063
aF0.2821340560913086
aa(lp735
F23.4963912463
aF0.22961270809173584
aa(lp736
F26.7496910745
aF0.19545769691467285
aa(lp737
F33.8161120127
aF0.21123623847961426
aa(lp738
F11.4574579554
aF0.8394262790679932
aa(lp739
F33.148159994
aF0.1993485689163208
aa(lp740
F21.1599125385
aF0.2739998698234558
aa(lp741
F11.343736992
aF0.8394262790679932
aa(lp742
F11.2311447658
aF0.8471274375915527
aa(lp743
F8.79603601972
aF0.4717254638671875
aa(lp744
F8.97328054903
aF0.36929798126220703
aa(lp745
F7.20517492369
aF1.7170166969299316
aa(lp746
F31.5354337482
aF0.1908702850341797
aa(lp747
F5.84345811043
aF2.416501522064209
aa(lp748
F7.84273568524
aF1.5752830505371094
aa(lp749
F23.7319425685
aF0.22632312774658203
aa(lp750
F12.0433938681
aF0.7675487995147705
aa(lp751
F10.3697201726
aF0.30402612686157227
aa(lp752
F9.19986712756
aF0.3583059310913086
aa(lp753
F5.08183085649
aF2.975482940673828
aa(lp754
F6.92334597497
aF1.849721908569336
aa(lp755
F11.5147452452
aF0.8400459289550781
aa(lp756
F6.78659273385
aF1.9270834922790527
aa(lp757
F5.26238524217
aF2.792062759399414
aa(lp758
F28.2582621771
aF0.1908353865146637
aa(lp759
F16.4075871111
aF0.4306694269180298
aa(lp760
F12.5963130554
aF0.7240886688232422
aa(lp761
F8.49424076777
aF1.0455222129821777
aa(lp762
F10.7381500768
aF0.36042237281799316
aa(lp763
F22.1313763777
aF0.25105729699134827
aa(lp764
F13.1090717243
aF0.6802825927734375
aa(lp765
F28.399553488
aF0.18888205289840698
aa(lp766
F4.64548534432
aF3.529043197631836
aa(lp767
F25.0703252313
aF0.209875226020813
aa(lp768
F7.46117044358
aF1.6517858505249023
aa(lp769
F14.4120948947
aF0.5540180206298828
aa(lp770
F18.3104103524
aF0.35440564155578613
aa(lp771
F5.53150431831
aF2.507274627685547
aa(lp772
F20.3322468719
aF0.2847464084625244
aa(lp773
F25.7033823597
aF0.20198023319244385
aa(lp774
F4.57649412335
aF3.546123504638672
aa(lp775
F16.0034792067
aF0.4483680725097656
aa(lp776
F18.7727711591
aF0.334932804107666
aa(lp777
F6.88890146764
aF1.886298656463623
aa(lp778
F14.2690476916
aF0.5643253326416016
aa(lp779
F6.14229332977
aF2.2621822357177734
aa(lp780
F24.8214897961
aF0.21250689029693604
aa(lp781
F9.2458664632
aF0.35510677099227905
aa(lp782
F11.0643483316
aF0.741185188293457
aa(lp783
F4.85876226689
aF3.107985019683838
aa(lp784
F25.1956768574
aF0.20855939388275146
aa(lp785
F20.1304392188
aF0.28797996044158936
aa(lp786
F10.2667955473
aF0.30835390090942383
aa(lp787
F5.10724001077
aF2.977849006652832
aa(lp788
F4.48609702249
aF3.5129342079162598
aa(lp789
F27.9777848836
aF0.19149571657180786
aa(lp790
F18.5864420773
aF0.3461366891860962
aa(lp791
F6.4886930768
aF2.0631513595581055
aa(lp792
F6.3288809031
aF2.095612049102783
aa(lp793
F7.09816913668
aF1.7628717422485352
aa(lp794
F12.2249495361
aF0.7550106048583984
aa(lp795
F24.4528598768
aF0.21711230278015137
aa(lp796
F8.53671197161
aF0.9441382884979248
aa(lp797
F11.9834764857
aF0.7859325408935547
aa(lp798
F9.96411068144
aF0.32087385654449463
aa(lp799
F4.76278967065
aF3.3219432830810547
aa(lp800
F14.0571346299
aF0.5797863006591797
aa(lp801
F8.66540397167
aF0.5566291809082031
aa(lp802
F11.400455677
aF0.8342921733856201
aa(lp803
F12.2860742838
aF0.7444453239440918
aa(lp804
F20.5360776468
aF0.2801614999771118
aa(lp805
F22.5773346913
aF0.24328136444091797
aa(lp806
F4.20445645746
aF3.9333438873291016
aa(lp807
F13.5072926737
aF0.6338996887207031
aa(lp808
F10.4736766174
aF0.2996983528137207
aa(lp809
F7.38711461952
aF1.6718640327453613
aa(lp810
F8.00077073557
aF1.5190229415893555
aa(lp811
F5.61489243735
aF2.480313777923584
aa(lp812
F11.5723189714
aF0.8445603847503662
aa(lp813
F7.96096590604
aF1.529252052307129
aa(lp814
F25.9610587679
aF0.20066440105438232
aa(lp815
F21.2657121011
aF0.2713778614997864
aa(lp816
F25.3216552417
aF0.20592772960662842
aa(lp817
F14.3403929301
aF0.5591716766357422
aa(lp818
F15.3775063791
aF0.4966278076171875
aa(lp819
F6.65254070815
aF2.015134811401367
aa(lp820
F12.4092421784
aF0.7395496368408203
aa(lp821
F18.4939722162
aF0.3466165065765381
aa(lp822
F23.6138732025
aF0.22829687595367432
aa(lp823
F5.13277621083
aF2.944912910461426
aa(lp824
F4.6920563349
aF3.5188140869140625
aa(lp825
F19.0557730309
aF0.32785022258758545
aa(lp826
F32.1708885256
aF0.1947973668575287
aa(lp827
F9.76729480144
aF0.3305280804634094
aa(lp828
F4.88305607822
aF3.1181087493896484
aa(lp829
F5.50398439633
aF2.551179885864258
aa(lp830
F20.9498898923
aF0.27494919300079346
aa(lp831
F31.0670934313
aF0.1908353865146637
aa(lp832
F6.82052569752
aF1.9333019256591797
aa(lp833
F22.3532434259
aF0.24646878242492676
aa(lp834
F20.7419518252
aF0.2788584232330322
aa(lp835
F5.64296689953
aF2.480313777923584
aa(lp836
F29.1166778018
aF0.18490558862686157
aa(lp837
F9.06323768653
aF0.3647042512893677
aa(lp838
F5.4222433993
aF2.6422934532165527
aa(lp839
F17.6821733951
aF0.3672976493835449
aa(lp840
F10.5260450004
aF0.3299858570098877
aa(lp841
F19.5369551793
aF0.3128635883331299
aa(lp842
F29.5556153593
aF0.18555274605751038
aa(lp843
F27.838591924
aF0.19149571657180786
aa(lp844
F14.556576146
aF0.5462875366210938
aa(lp845
F10.6847264446
aF0.3587186336517334
aa(lp846
F9.43217530115
aF0.34550929069519043
aa(lp847
F6.17300479642
aF2.231612205505371
aa(lp848
F30.6057085492
aF0.18888205289840698
aa(lp849
F32.0108343538
aF0.19347670674324036
aa(lp850
F14.1274203031
aF0.5797863006591797
aa(lp851
F8.84001619982
aF0.4564380645751953
aa(lp852
F15.9238599072
aF0.452655553817749
aa(lp853
F16.3259573245
aF0.43842923641204834
aa(lp854
F12.7862040493
aF0.7034740447998047
aa(lp855
F10.9000290315
aF0.5988445281982422
aa(lp856
F16.4896250466
aF0.42937612533569336
aa(lp857
F7.92135911049
aF1.5497102737426758
aa(lp858
F31.8515764715
aF0.1928163766860962
aa(lp859
F8.1213833545
aF1.453352928161621
aa(lp860
F18.6793742877
aF0.33882737159729004
aa(lp861
F7.76489263656
aF1.5854759216308594
aatp862
Rp863
aa(lp864
S'central'
p865
ag0
((lp866
(lp867
F6.6194434907
aF3.078125
aa(lp868
F4.62237347694
aF5.4375
aa(lp869
F17.7705842621
aF0.548828125
aa(lp870
F23.9698552928
aF0.33203125
aa(lp871
F34.843361273
aF0.3837890625
aa(lp872
F5.78545888511
aF3.75
aa(lp873
F12.3475046552
aF1.125
aa(lp874
F27.0178567275
aF0.2841796875
aa(lp875
F13.4400922127
aF0.9765625
aa(lp876
F28.8276803068
aF0.2734375
aa(lp877
F24.2101530921
aF0.3271484375
aa(lp878
F15.1491313306
aF0.765625
aa(lp879
F13.3732260823
aF0.984375
aa(lp880
F33.313900794
aF0.2998046875
aa(lp881
F13.5748291371
aF0.9453125
aa(lp882
F7.16932828228
aF2.640625
aa(lp883
F13.7794713832
aF0.91796875
aa(lp884
F8.04077458925
aF2.3125
aa(lp885
F26.8834395298
aF0.287109375
aa(lp886
F4.33217737299
aF5.765625
aa(lp887
F7.42405019262
aF2.5703125
aa(lp888
F30.4534413425
aF0.2802734375
aa(lp889
F22.2420332596
aF0.37109375
aa(lp890
F29.8519104033
aF0.2763671875
aa(lp891
F8.57939553147
aF1.359375
aa(lp892
F8.75227464648
aF0.87109375
aa(lp893
F17.8594371834
aF0.54296875
aa(lp894
F10.1648924999
aF0.56640625
aa(lp895
F7.24120079831
aF2.625
aa(lp896
F14.7025058219
aF0.80859375
aa(lp897
F14.776018351
aF0.80078125
aa(lp898
F7.02771628096
aF2.7734375
aa(lp899
F15.2248769873
aF0.76171875
aa(lp900
F8.92863736222
aF0.73046875
aa(lp901
F24.0897045692
aF0.330078125
aa(lp902
F35.0175780794
aF0.40625
aa(lp903
F20.6387580351
aF0.419921875
aa(lp904
F8.24381422375
aF2.1484375
aa(lp905
F9.71870129496
aF0.60546875
aa(lp906
F6.29739393343
aF3.265625
aa(lp907
F16.7382082054
aF0.626953125
aa(lp908
F9.62223835545
aF0.61328125
aa(lp909
F23.1474406845
aF0.3466796875
aa(lp910
F5.99101275032
aF3.59375
aa(lp911
F30.0011699553
aF0.2783203125
aa(lp912
F22.6902213647
aF0.3603515625
aa(lp913
F10.5786752254
aF0.60546875
aa(lp914
F21.5862953693
aF0.390625
aa(lp915
F9.67034954722
aF0.609375
aa(lp916
F19.8314772207
aF0.451171875
aa(lp917
F17.1608689377
aF0.58984375
aa(lp918
F7.80371709974
aF2.390625
aa(lp919
F10.7918408272
aF0.6953125
aa(lp920
F26.4841870988
aF0.2919921875
aa(lp921
F7.35036280549
aF2.59375
aa(lp922
F7.88194936367
aF2.390625
aa(lp923
F9.01814695177
aF0.67578125
aa(lp924
F31.3785410429
aF0.28125
aa(lp925
F18.96096819
aF0.494140625
aa(lp926
F15.073762518
aF0.77734375
aa(lp927
F4.28917835993
aF5.90625
aa(lp928
F21.478900865
aF0.396484375
aa(lp929
F7.61151676327
aF2.4765625
aa(lp930
F9.91453799148
aF0.5859375
aa(lp931
F15.687370831
aF0.7109375
aa(lp932
F4.98145210278
aF4.71875
aa(lp933
F5.05654811591
aF4.640625
aa(lp934
F8.45198086345
aF1.7734375
aa(lp935
F5.93154897188
aF3.640625
aa(lp936
F23.0322792881
aF0.3505859375
aa(lp937
F30.151175805
aF0.2783203125
aa(lp938
F28.1176738081
aF0.28125
aa(lp939
F12.1641288916
aF1.14453125
aa(lp940
F4.78660361901
aF5.03125
aa(lp941
F16.2447336562
aF0.6640625
aa(lp942
F24.5751241762
aF0.3193359375
aa(lp943
F17.0754914803
aF0.59375
aa(lp944
F23.3794937774
aF0.3447265625
aa(lp945
F6.36052530761
aF3.234375
aa(lp946
F4.37560745116
aF5.625
aa(lp947
F4.39748548841
aF5.625
aa(lp948
F8.88421628081
aF0.77734375
aa(lp949
F17.5942023832
aF0.55859375
aa(lp950
F28.6842590117
aF0.2763671875
aa(lp951
F7.68782221882
aF2.4140625
aa(lp952
F9.15409664434
aF0.66015625
aa(lp953
F5.67118173403
aF3.84375
aa(lp954
F10.8458000313
aF0.859375
aa(lp955
F8.20280022263
aF2.1953125
aa(lp956
F15.5316658805
aF0.728515625
aa(lp957
F5.47660138938
aF3.984375
aa(lp958
F21.6942268461
aF0.38671875
aa(lp959
F10.9545291766
aF1.03125
aa(lp960
F22.8036724716
aF0.357421875
aa(lp961
F4.26783916411
aF5.9375
aa(lp962
F4.73909419965
aF5.203125
aa(lp963
F14.9987686747
aF0.78515625
aa(lp964
F6.58651093602
aF3.078125
aa(lp965
F32.9832437751
aF0.2919921875
aa(lp966
F6.85462832601
aF2.9375
aa(lp967
F17.2466732824
aF0.58203125
aa(lp968
F13.9176105838
aF0.89453125
aa(lp969
F6.75282859089
aF2.9765625
aa(lp970
F5.36842493929
aF4.1875
aa(lp971
F27.2887107412
aF0.2822265625
aa(lp972
F5.15844009188
aF4.46875
aa(lp973
F5.39526706398
aF4.125
aa(lp974
F21.3720406616
aF0.400390625
aa(lp975
F19.6346399552
aF0.462890625
aa(lp976
F19.1510518961
aF0.484375
aa(lp977
F27.5622800663
aF0.2822265625
aa(lp978
F32.3317429682
aF0.2890625
aa(lp979
F20.2310914149
aF0.431640625
aa(lp980
F4.53107014514
aF5.421875
aa(lp981
F8.70873099153
aF0.89453125
aa(lp982
F27.1529460111
aF0.28125
aa(lp983
F10.064000891
aF0.57421875
aa(lp984
F12.6592946207
aF1.078125
aa(lp985
F5.23620422107
aF4.328125
aa(lp986
F15.3010013722
aF0.755859375
aa(lp987
F4.46377813183
aF5.421875
aa(lp988
F13.1746170829
aF1.01953125
aa(lp989
F12.5336448313
aF1.11328125
aa(lp990
F32.6558686915
aF0.2890625
aa(lp991
F24.9455972451
aF0.3134765625
aa(lp992
F7.13365998236
aF2.6484375
aa(lp993
F24.6979997971
aF0.3173828125
aa(lp994
F26.0908640617
aF0.2978515625
aa(lp995
F9.81613127544
aF0.595703125
aa(lp996
F27.4251542949
aF0.2822265625
aa(lp997
F5.4493546163
aF4.046875
aa(lp998
F33.6478726494
aF0.30859375
aa(lp999
F25.8318992715
aF0.2978515625
aa(lp1000
F9.86521193182
aF0.58984375
aa(lp1001
F19.4397563973
aF0.474609375
aa(lp1002
F20.8456615844
aF0.416015625
aa(lp1003
F18.8666350149
aF0.501953125
aa(lp1004
F32.4934016831
aF0.2890625
aa(lp1005
F25.4482635179
aF0.302734375
aa(lp1006
F16.6549335377
aF0.634765625
aa(lp1007
F7.31379383631
aF2.59375
aa(lp1008
F6.08132801641
aF3.53125
aa(lp1009
F6.68580341169
aF2.9765625
aa(lp1010
F17.3329066488
aF0.572265625
aa(lp1011
F6.42428957382
aF3.234375
aa(lp1012
F10.0139312348
aF0.578125
aa(lp1013
F9.38524905587
aF0.63671875
aa(lp1014
F5.6995376427
aF3.828125
aa(lp1015
F5.5591618399
aF3.84375
aa(lp1016
F4.71551661657
aF5.296875
aa(lp1017
F17.9487343693
aF0.54296875
aa(lp1018
F14.1980574046
aF0.859375
aa(lp1019
F18.1286704313
aF0.5390625
aa(lp1020
F17.4195711821
aF0.56640625
aa(lp1021
F11.7467731264
aF1.2578125
aa(lp1022
F4.8105366371
aF4.953125
aa(lp1023
F11.6883314691
aF1.2734375
aa(lp1024
F32.819148035
aF0.2900390625
aa(lp1025
F30.3019316841
aF0.2783203125
aa(lp1026
F7.53596867728
aF2.5234375
aa(lp1027
F18.4019624042
aF0.529296875
aa(lp1028
F16.5720731719
aF0.640625
aa(lp1029
F7.57364852066
aF2.46875
aa(lp1030
F10.2157169624
aF0.5625
aa(lp1031
F16.9060087427
aF0.607421875
aa(lp1032
F23.8506022814
aF0.333984375
aa(lp1033
F28.9718187083
aF0.2734375
aa(lp1034
F33.9851925727
aF0.3212890625
aa(lp1035
F30.9125307774
aF0.2802734375
aa(lp1036
F4.50852750761
aF5.40625
aa(lp1037
F5.87267540098
aF3.703125
aa(lp1038
F22.4650096431
aF0.36328125
aa(lp1039
F9.33855627449
aF0.640625
aa(lp1040
F5.90203877799
aF3.671875
aa(lp1041
F11.1196700733
aF1.2109375
aa(lp1042
F4.24660613344
aF6.0
aa(lp1043
F11.9238571997
aF1.21484375
aa(lp1044
F9.29209579552
aF0.64453125
aa(lp1045
F7.64957434708
aF2.453125
aa(lp1046
F5.2101534538
aF4.375
aa(lp1047
F4.66871277104
aF5.390625
aa(lp1048
F7.4984762958
aF2.53125
aa(lp1049
F6.05107265314
aF3.578125
aa(lp1050
F13.3066926192
aF0.99609375
aa(lp1051
F5.18423229234
aF4.421875
aa(lp1052
F9.52673285854
aF0.62109375
aa(lp1053
F29.4085724968
aF0.2724609375
aa(lp1054
F12.9789576736
aF1.04296875
aa(lp1055
F28.5415512554
aF0.2783203125
aa(lp1056
F29.2622611908
aF0.2724609375
aa(lp1057
F4.41947291585
aF5.5
aa(lp1058
F5.28869716839
aF4.234375
aa(lp1059
F4.35383825986
aF5.6875
aa(lp1060
F8.32645846134
aF2.0703125
aa(lp1061
F26.6166080343
aF0.291015625
aa(lp1062
F10.6315686016
aF0.619140625
aa(lp1063
F16.0834966027
aF0.673828125
aa(lp1064
F15.8446367235
aF0.693359375
aa(lp1065
F20.0302877799
aF0.439453125
aa(lp1066
F11.2873004896
aF1.28125
aa(lp1067
F6.99275251837
aF2.796875
aa(lp1068
F18.2193137835
aF0.537109375
aa(lp1069
F6.45641102169
aF3.171875
aa(lp1070
F15.6093242099
aF0.716796875
aa(lp1071
F19.732813155
aF0.45703125
aa(lp1072
F10.4215687735
aF0.544921875
aa(lp1073
F4.44157028043
aF5.46875
aa(lp1074
F31.2224288985
aF0.28125
aa(lp1075
F21.9117114703
aF0.37890625
aa(lp1076
F4.90747135861
aF4.78125
aa(lp1077
F11.6301805663
aF1.28125
aa(lp1078
F7.06285486237
aF2.71875
aa(lp1079
F7.2774068023
aF2.6171875
aa(lp1080
F5.72803533091
aF3.84375
aa(lp1081
F9.10855387497
aF0.6640625
aa(lp1082
F6.2348891695
aF3.328125
aa(lp1083
F16.1639140858
aF0.671875
aa(lp1084
F8.08097846219
aF2.25
aa(lp1085
F24.3312038575
aF0.32421875
aa(lp1086
F6.71923242875
aF2.96875
aa(lp1087
F8.62229250912
aF1.20703125
aa(lp1088
F4.22547873975
aF5.9375
aa(lp1089
F5.5869576491
aF3.8125
aa(lp1090
F12.1036108374
aF1.1484375
aa(lp1091
F31.6931109169
aF0.2841796875
aa(lp1092
F11.864534527
aF1.234375
aa(lp1093
F19.9306346068
aF0.4453125
aa(lp1094
F16.9905387864
aF0.599609375
aa(lp1095
F12.9143857449
aF1.046875
aa(lp1096
F13.043852462
aF1.04296875
aa(lp1097
F5.00635936329
aF4.6875
aa(lp1098
F5.81438617953
aF3.71875
aa(lp1099
F9.47933617765
aF0.626953125
aa(lp1100
F5.3417163575
aF4.203125
aa(lp1101
F25.5755048355
aF0.3017578125
aa(lp1102
F21.8026979804
aF0.3837890625
aa(lp1103
F4.93200871541
aF4.78125
aa(lp1104
F18.0384780411
aF0.54296875
aa(lp1105
F10.1143208955
aF0.5703125
aa(lp1106
F6.26606361535
aF3.28125
aa(lp1107
F22.9176908339
aF0.35546875
aa(lp1108
F34.4975235989
aF0.3486328125
aa(lp1109
F22.0212700276
aF0.375
aa(lp1110
F6.2038698204
aF3.375
aa(lp1111
F4.83458932029
aF4.921875
aa(lp1112
F13.8483687401
aF0.90234375
aa(lp1113
F34.1551185356
aF0.3291015625
aa(lp1114
F8.36809075365
aF1.9765625
aa(lp1115
F34.3258941283
aF0.337890625
aa(lp1116
F26.221318382
aF0.2958984375
aa(lp1117
F27.7000914667
aF0.2841796875
aa(lp1118
F6.95796270485
aF2.828125
aa(lp1119
F21.0546393417
aF0.41015625
aa(lp1120
F4.95666875898
aF4.765625
aa(lp1121
F19.2468071556
aF0.482421875
aa(lp1122
F29.7033934361
aF0.275390625
aa(lp1123
F9.57436652283
aF0.6171875
aa(lp1124
F26.3524249739
aF0.2939453125
aa(lp1125
F6.02096781407
aF3.609375
aa(lp1126
F16.8218992464
aF0.615234375
aa(lp1127
F14.924147935
aF0.78515625
aa(lp1128
F14.6293590268
aF0.81640625
aa(lp1129
F34.6700112169
aF0.365234375
aa(lp1130
F6.39232793415
aF3.21875
aa(lp1131
F4.55372549587
aF5.4375
aa(lp1132
F11.0093018225
aF1.09375
aa(lp1133
F5.96120671674
aF3.609375
aa(lp1134
F11.1752684237
aF1.2578125
aa(lp1135
F11.8055069921
aF1.24609375
aa(lp1136
F5.75667550757
aF3.828125
aa(lp1137
F33.4804702979
aF0.3037109375
aa(lp1138
F8.28503329487
aF2.109375
aa(lp1139
F14.8498984428
aF0.79296875
aa(lp1140
F23.263177888
aF0.3466796875
aa(lp1141
F8.40993120741
aF1.8984375
aa(lp1142
F6.55374222489
aF3.109375
aa(lp1143
F30.758737092
aF0.2783203125
aa(lp1144
F13.7109167992
aF0.9296875
aa(lp1145
F6.52113654218
aF3.125
aa(lp1146
F13.2404901683
aF1.01171875
aa(lp1147
F12.7225910938
aF1.0703125
aa(lp1148
F4.31062425173
aF5.75
aa(lp1149
F19.3430411913
aF0.478515625
aa(lp1150
F8.16199027128
aF2.2109375
aa(lp1151
F15.7658076851
aF0.70703125
aa(lp1152
F7.72626132991
aF2.40625
aa(lp1153
F12.8501350695
aF1.0625
aa(lp1154
F10.318129525
aF0.552734375
aa(lp1155
F5.03139116011
aF4.6875
aa(lp1156
F6.11173465649
aF3.484375
aa(lp1157
F12.4712883893
aF1.1171875
aa(lp1158
F15.454393911
aF0.73828125
aa(lp1159
F5.31514065423
aF4.21875
aa(lp1160
F13.6427032828
aF0.9375
aa(lp1161
F13.9871986367
aF0.890625
aa(lp1162
F17.506669038
aF0.5625
aa(lp1163
F4.59937659397
aF5.46875
aa(lp1164
F14.4841553692
aF0.828125
aa(lp1165
F20.4339081063
aF0.421875
aa(lp1166
F23.4963912463
aF0.3408203125
aa(lp1167
F26.7496910745
aF0.2890625
aa(lp1168
F33.8161120127
aF0.3154296875
aa(lp1169
F11.4574579554
aF1.27734375
aa(lp1170
F33.148159994
aF0.2958984375
aa(lp1171
F21.1599125385
aF0.408203125
aa(lp1172
F11.343736992
aF1.27734375
aa(lp1173
F11.2311447658
aF1.2890625
aa(lp1174
F8.79603601972
aF0.84375
aa(lp1175
F8.97328054903
aF0.6796875
aa(lp1176
F7.20517492369
aF2.6328125
aa(lp1177
F31.5354337482
aF0.28125
aa(lp1178
F5.84345811043
aF3.703125
aa(lp1179
F7.84273568524
aF2.40625
aa(lp1180
F23.7319425685
aF0.3359375
aa(lp1181
F12.0433938681
aF1.16796875
aa(lp1182
F10.3697201726
aF0.548828125
aa(lp1183
F9.19986712756
aF0.65625
aa(lp1184
F5.08183085649
aF4.5625
aa(lp1185
F6.92334597497
aF2.84375
aa(lp1186
F11.5147452452
aF1.2734375
aa(lp1187
F6.78659273385
aF2.953125
aa(lp1188
F5.26238524217
aF4.28125
aa(lp1189
F28.2582621771
aF0.2822265625
aa(lp1190
F16.4075871111
aF0.650390625
aa(lp1191
F12.5963130554
aF1.09765625
aa(lp1192
F8.49424076777
aF1.6328125
aa(lp1193
F10.7381500768
aF0.638671875
aa(lp1194
F22.1313763777
aF0.3740234375
aa(lp1195
F13.1090717243
aF1.03125
aa(lp1196
F28.399553488
aF0.2783203125
aa(lp1197
F4.64548534432
aF5.390625
aa(lp1198
F25.0703252313
aF0.3115234375
aa(lp1199
F7.46117044358
aF2.53125
aa(lp1200
F14.4120948947
aF0.83984375
aa(lp1201
F18.3104103524
aF0.533203125
aa(lp1202
F5.53150431831
aF3.859375
aa(lp1203
F20.3322468719
aF0.42578125
aa(lp1204
F25.7033823597
aF0.2998046875
aa(lp1205
F4.57649412335
aF5.4375
aa(lp1206
F16.0034792067
aF0.6796875
aa(lp1207
F18.7727711591
aF0.50390625
aa(lp1208
F6.88890146764
aF2.890625
aa(lp1209
F14.2690476916
aF0.85546875
aa(lp1210
F6.14229332977
aF3.46875
aa(lp1211
F24.8214897961
aF0.3154296875
aa(lp1212
F9.2458664632
aF0.650390625
aa(lp1213
F11.0643483316
aF1.1484375
aa(lp1214
F4.85876226689
aF4.796875
aa(lp1215
F25.1956768574
aF0.3095703125
aa(lp1216
F20.1304392188
aF0.431640625
aa(lp1217
F10.2667955473
aF0.556640625
aa(lp1218
F5.10724001077
aF4.578125
aa(lp1219
F4.48609702249
aF5.421875
aa(lp1220
F27.9777848836
aF0.283203125
aa(lp1221
F18.5864420773
aF0.517578125
aa(lp1222
F6.4886930768
aF3.171875
aa(lp1223
F6.3288809031
aF3.234375
aa(lp1224
F7.09816913668
aF2.703125
aa(lp1225
F12.2249495361
aF1.14453125
aa(lp1226
F24.4528598768
aF0.322265625
aa(lp1227
F8.53671197161
aF1.4921875
aa(lp1228
F11.9834764857
aF1.19140625
aa(lp1229
F9.96411068144
aF0.58203125
aa(lp1230
F4.76278967065
aF5.09375
aa(lp1231
F14.0571346299
aF0.87890625
aa(lp1232
F8.66540397167
aF0.96875
aa(lp1233
F11.400455677
aF1.26953125
aa(lp1234
F12.2860742838
aF1.1328125
aa(lp1235
F20.5360776468
aF0.419921875
aa(lp1236
F22.5773346913
aF0.36328125
aa(lp1237
F4.20445645746
aF6.03125
aa(lp1238
F13.5072926737
aF0.9609375
aa(lp1239
F10.4736766174
aF0.541015625
aa(lp1240
F7.38711461952
aF2.5703125
aa(lp1241
F8.00077073557
aF2.3203125
aa(lp1242
F5.61489243735
aF3.828125
aa(lp1243
F11.5723189714
aF1.28515625
aa(lp1244
F7.96096590604
aF2.3359375
aa(lp1245
F25.9610587679
aF0.2978515625
aa(lp1246
F21.2657121011
aF0.404296875
aa(lp1247
F25.3216552417
aF0.3056640625
aa(lp1248
F14.3403929301
aF0.84765625
aa(lp1249
F15.3775063791
aF0.75
aa(lp1250
F6.65254070815
aF3.078125
aa(lp1251
F12.4092421784
aF1.12109375
aa(lp1252
F18.4939722162
aF0.521484375
aa(lp1253
F23.6138732025
aF0.3388671875
aa(lp1254
F5.13277621083
aF4.515625
aa(lp1255
F4.6920563349
aF5.375
aa(lp1256
F19.0557730309
aF0.490234375
aa(lp1257
F32.1708885256
aF0.2880859375
aa(lp1258
F9.76729480144
aF0.599609375
aa(lp1259
F4.88305607822
aF4.8125
aa(lp1260
F5.50398439633
aF3.9375
aa(lp1261
F20.9498898923
aF0.412109375
aa(lp1262
F31.0670934313
aF0.2822265625
aa(lp1263
F6.82052569752
aF2.953125
aa(lp1264
F22.3532434259
aF0.3671875
aa(lp1265
F20.7419518252
aF0.41796875
aa(lp1266
F5.64296689953
aF3.828125
aa(lp1267
F29.1166778018
aF0.2724609375
aa(lp1268
F9.06323768653
aF0.66796875
aa(lp1269
F5.4222433993
aF4.078125
aa(lp1270
F17.6821733951
aF0.5546875
aa(lp1271
F10.5260450004
aF0.58203125
aa(lp1272
F19.5369551793
aF0.470703125
aa(lp1273
F29.5556153593
aF0.2744140625
aa(lp1274
F27.838591924
aF0.283203125
aa(lp1275
F14.556576146
aF0.828125
aa(lp1276
F10.6847264446
aF0.6328125
aa(lp1277
F9.43217530115
aF0.6328125
aa(lp1278
F6.17300479642
aF3.421875
aa(lp1279
F30.6057085492
aF0.2783203125
aa(lp1280
F32.0108343538
aF0.2861328125
aa(lp1281
F14.1274203031
aF0.87890625
aa(lp1282
F8.84001619982
aF0.81640625
aa(lp1283
F15.9238599072
aF0.68359375
aa(lp1284
F16.3259573245
aF0.662109375
aa(lp1285
F12.7862040493
aF1.06640625
aa(lp1286
F10.9000290315
aF0.953125
aa(lp1287
F16.4896250466
aF0.6484375
aa(lp1288
F7.92135911049
aF2.3671875
aa(lp1289
F31.8515764715
aF0.28515625
aa(lp1290
F8.1213833545
aF2.234375
aa(lp1291
F18.6793742877
aF0.509765625
aa(lp1292
F7.76489263656
aF2.4375
aatp1293
Rp1294
aa(lp1295
S'up1'
p1296
ag0
((lp1297
(lp1298
F6.6194434907
aF4.943094730377197
aa(lp1299
F4.62237347694
aF8.731964111328125
aa(lp1300
F17.7705842621
aF0.8616624474525452
aa(lp1301
F23.9698552928
aF0.5133494734764099
aa(lp1302
F34.843361273
aF0.5979610085487366
aa(lp1303
F5.78545888511
aF6.0220441818237305
aa(lp1304
F12.3475046552
aF1.788676142692566
aa(lp1305
F27.0178567275
aF0.437101274728775
aa(lp1306
F13.4400922127
aF1.5409923791885376
aa(lp1307
F28.8276803068
aF0.4194886088371277
aa(lp1308
F24.2101530921
aF0.5058002471923828
aa(lp1309
F15.1491313306
aF1.2081379890441895
aa(lp1310
F13.3732260823
aF1.557244062423706
aa(lp1311
F33.313900794
aF0.46352440118789673
aa(lp1312
F13.5748291371
aF1.4954487085342407
aa(lp1313
F7.16932828228
aF4.2615742683410645
aa(lp1314
F13.7794713832
aF1.4485328197479248
aa(lp1315
F8.04077458925
aF3.6951587200164795
aa(lp1316
F26.8834395298
aF0.4416074752807617
aa(lp1317
F4.33217737299
aF9.30485725402832
aa(lp1318
F7.42405019262
aF4.107119083404541
aa(lp1319
F30.4534413425
aF0.4288586378097534
aa(lp1320
F22.2420332596
aF0.5767019391059875
aa(lp1321
F29.8519104033
aF0.42288151383399963
aa(lp1322
F8.57939553147
aF2.2913615703582764
aa(lp1323
F8.75227464648
aF1.6141481399536133
aa(lp1324
F17.8594371834
aF0.8524631857872009
aa(lp1325
F10.1648924999
aF1.067620038986206
aa(lp1326
F7.24120079831
aF4.215431213378906
aa(lp1327
F14.7025058219
aF1.2759417295455933
aa(lp1328
F14.776018351
aF1.2636138200759888
aa(lp1329
F7.02771628096
aF4.4316935539245605
aa(lp1330
F15.2248769873
aF1.2019740343093872
aa(lp1331
F8.92863736222
aF1.3710383176803589
aa(lp1332
F24.0897045692
aF0.5090140700340271
aa(lp1333
F35.0175780794
aF0.6345755457878113
aa(lp1334
F20.6387580351
aF0.6525837779045105
aa(lp1335
F8.24381422375
aF3.43300199508667
aa(lp1336
F9.71870129496
aF1.1460758447647095
aa(lp1337
F6.29739393343
aF5.244196891784668
aa(lp1338
F16.7382082054
aF0.9843189716339111
aa(lp1339
F9.62223835545
aF1.1657530069351196
aa(lp1340
F23.1474406845
aF0.5359972715377808
aa(lp1341
F5.99101275032
aF5.771125793457031
aa(lp1342
F30.0011699553
aF0.42808887362480164
aa(lp1343
F22.6902213647
aF0.5585715770721436
aa(lp1344
F10.5786752254
aF1.1122878789901733
aa(lp1345
F21.5862953693
aF0.6070546507835388
aa(lp1346
F9.67034954722
aF1.1534698009490967
aa(lp1347
F19.8314772207
aF0.7029465436935425
aa(lp1348
F17.1608689377
aF0.9260571002960205
aa(lp1349
F7.80371709974
aF3.819995164871216
aa(lp1350
F10.7918408272
aF1.244078516960144
aa(lp1351
F26.4841870988
aF0.4491177797317505
aa(lp1352
F7.35036280549
aF4.1445698738098145
aa(lp1353
F7.88194936367
aF3.819995164871216
aa(lp1354
F9.01814695177
aF1.2899432182312012
aa(lp1355
F31.3785410429
aF0.4314740002155304
aa(lp1356
F18.96096819
aF0.7718634605407715
aa(lp1357
F15.073762518
aF1.2266299724578857
aa(lp1358
F4.28917835993
aF9.531805038452148
aa(lp1359
F21.478900865
aF0.61616051197052
aa(lp1360
F7.61151676327
aF3.9770584106445312
aa(lp1361
F9.91453799148
aF1.1091055870056152
aa(lp1362
F15.687370831
aF1.1218425035476685
aa(lp1363
F4.98145210278
aF7.577739238739014
aa(lp1364
F5.05654811591
aF7.452280044555664
aa(lp1365
F8.45198086345
aF2.8903391361236572
aa(lp1366
F5.93154897188
aF5.875424861907959
aa(lp1367
F23.0322792881
aF0.5434341430664062
aa(lp1368
F30.151175805
aF0.4269794821739197
aa(lp1369
F28.1176738081
aF0.43259507417678833
aa(lp1370
F12.1641288916
aF1.8197295665740967
aa(lp1371
F4.78660361901
aF8.119686126708984
aa(lp1372
F16.2447336562
aF1.0452278852462769
aa(lp1373
F24.5751241762
aF0.4924485385417938
aa(lp1374
F17.0754914803
aF0.9345566630363464
aa(lp1375
F23.3794937774
aF0.5329775810241699
aa(lp1376
F6.36052530761
aF5.1940131187438965
aa(lp1377
F4.37560745116
aF9.077909469604492
aa(lp1378
F4.39748548841
aF9.077909469604492
aa(lp1379
F8.88421628081
aF1.4466252326965332
aa(lp1380
F17.5942023832
aF0.8769944906234741
aa(lp1381
F28.6842590117
aF0.4239831268787384
aa(lp1382
F7.68782221882
aF3.8766911029815674
aa(lp1383
F9.15409664434
aF1.260118007659912
aa(lp1384
F5.67118173403
aF6.172595500946045
aa(lp1385
F10.8458000313
aF1.4554129838943481
aa(lp1386
F8.20280022263
aF3.507904052734375
aa(lp1387
F15.5316658805
aF1.1466764211654663
aa(lp1388
F5.47660138938
aF6.430185794830322
aa(lp1389
F21.6942268461
aF0.5994426608085632
aa(lp1390
F10.9545291766
aF1.697168231010437
aa(lp1391
F22.8036724716
aF0.5526056289672852
aa(lp1392
F4.26783916411
aF9.58223819732666
aa(lp1393
F4.73909419965
aF8.355587005615234
aa(lp1394
F14.9987686747
aF1.2389578819274902
aa(lp1395
F6.58651093602
aF4.943094730377197
aa(lp1396
F32.9832437751
aF0.45028167963027954
aa(lp1397
F6.85462832601
aF4.693850040435791
aa(lp1398
F17.2466732824
aF0.9137914776802063
aa(lp1399
F13.9176105838
aF1.4151146411895752
aa(lp1400
F6.75282859089
aF4.779997825622559
aa(lp1401
F5.36842493929
aF6.724616050720215
aa(lp1402
F27.2887107412
aF0.43409714102745056
aa(lp1403
F5.15844009188
aF7.211894989013672
aa(lp1404
F5.39526706398
aF6.62424898147583
aa(lp1405
F21.3720406616
aF0.6206350326538086
aa(lp1406
F19.6346399552
aF0.7230499982833862
aa(lp1407
F19.1510518961
aF0.7566092610359192
aa(lp1408
F27.5622800663
aF0.43409714102745056
aa(lp1409
F32.3317429682
aF0.4446115791797638
aa(lp1410
F20.2310914149
aF0.6725159287452698
aa(lp1411
F4.53107014514
aF8.750096321105957
aa(lp1412
F8.70873099153
aF1.6575782299041748
aa(lp1413
F27.1529460111
aF0.43259507417678833
aa(lp1414
F10.064000891
aF1.0823458433151245
aa(lp1415
F12.6592946207
aF1.709850549697876
aa(lp1416
F5.23620422107
aF6.950442790985107
aa(lp1417
F15.3010013722
aF1.1897152662277222
aa(lp1418
F4.46377813183
aF8.750096321105957
aa(lp1419
F13.1746170829
aF1.6087960004806519
aa(lp1420
F12.5336448313
aF1.7611689567565918
aa(lp1421
F32.6558686915
aF0.44576379656791687
aa(lp1422
F24.9455972451
aF0.4834127724170685
aa(lp1423
F7.13365998236
aF4.274182319641113
aa(lp1424
F24.6979997971
aF0.48943662643432617
aa(lp1425
F26.0908640617
aF0.4581301808357239
aa(lp1426
F9.81613127544
aF1.1275907754898071
aa(lp1427
F27.4251542949
aF0.43409714102745056
aa(lp1428
F5.4493546163
aF6.5310516357421875
aa(lp1429
F33.6478726494
aF0.47834312915802
aa(lp1430
F25.8318992715
aF0.4581301808357239
aa(lp1431
F9.86521193182
aF1.121201992034912
aa(lp1432
F19.4397563973
aF0.739463210105896
aa(lp1433
F20.8456615844
aF0.6465132236480713
aa(lp1434
F18.8666350149
aF0.7840668559074402
aa(lp1435
F32.4934016831
aF0.4446115791797638
aa(lp1436
F25.4482635179
aF0.468053936958313
aa(lp1437
F16.6549335377
aF0.9965846538543701
aa(lp1438
F7.31379383631
aF4.165247440338135
aa(lp1439
F6.08132801641
aF5.6707587242126465
aa(lp1440
F6.68580341169
aF4.779997825622559
aa(lp1441
F17.3329066488
aF0.8984593749046326
aa(lp1442
F6.42428957382
aF5.168228626251221
aa(lp1443
F10.0139312348
aF1.089708685874939
aa(lp1444
F9.38524905587
aF1.2103041410446167
aa(lp1445
F5.6995376427
aF6.116985321044922
aa(lp1446
F5.5591618399
aF6.203238010406494
aa(lp1447
F4.71551661657
aF8.463911056518555
aa(lp1448
F17.9487343693
aF0.8502988815307617
aa(lp1449
F14.1980574046
aF1.3594988584518433
aa(lp1450
F18.1286704313
aF0.8420329093933105
aa(lp1451
F17.4195711821
aF0.8915178775787354
aa(lp1452
F11.7467731264
aF1.9948256015777588
aa(lp1453
F4.8105366371
aF7.993603706359863
aa(lp1454
F11.6883314691
aF2.0145299434661865
aa(lp1455
F32.819148035
aF0.44842588901519775
aa(lp1456
F30.3019316841
aF0.4269794821739197
aa(lp1457
F7.53596867728
aF4.032217025756836
aa(lp1458
F18.4019624042
aF0.8267786502838135
aa(lp1459
F16.5720731719
aF1.0083374977111816
aa(lp1460
F7.57364852066
aF3.944831371307373
aa(lp1461
F10.2157169624
aF1.060257077217102
aa(lp1462
F16.9060087427
aF0.9560760855674744
aa(lp1463
F23.8506022814
aF0.5163691639900208
aa(lp1464
F28.9718187083
aF0.4194886088371277
aa(lp1465
F33.9851925727
aF0.499302476644516
aa(lp1466
F30.9125307774
aF0.42997580766677856
aa(lp1467
F4.50852750761
aF8.72488021850586
aa(lp1468
F5.87267540098
aF5.946768760681152
aa(lp1469
F22.4650096431
aF0.5645608305931091
aa(lp1470
F9.33855627449
aF1.2177292108535767
aa(lp1471
F5.90203877799
aF5.896584987640381
aa(lp1472
F11.1196700733
aF1.9349647760391235
aa(lp1473
F4.24660613344
aF9.683103561401367
aa(lp1474
F11.9238571997
aF1.9266793727874756
aa(lp1475
F9.29209579552
aF1.2302926778793335
aa(lp1476
F7.64957434708
aF3.9198641777038574
aa(lp1477
F5.2101534538
aF7.060596466064453
aa(lp1478
F4.66871277104
aF8.613714218139648
aa(lp1479
F7.4984762958
aF4.064879894256592
aa(lp1480
F6.05107265314
aF5.746034145355225
aa(lp1481
F13.3066926192
aF1.5757826566696167
aa(lp1482
F5.18423229234
aF7.100994110107422
aa(lp1483
F9.52673285854
aF1.1806033849716187
aa(lp1484
F29.4085724968
aF0.41799041628837585
aa(lp1485
F12.9789576736
aF1.6499371528625488
aa(lp1486
F28.5415512554
aF0.42587006092071533
aa(lp1487
F29.2622611908
aF0.41799041628837585
aa(lp1488
F4.41947291585
aF8.876178741455078
aa(lp1489
F5.28869716839
aF6.833648681640625
aa(lp1490
F4.35383825986
aF9.1787748336792
aa(lp1491
F8.32645846134
aF3.3081655502319336
aa(lp1492
F26.6166080343
aF0.44761571288108826
aa(lp1493
F10.6315686016
aF1.1275323629379272
aa(lp1494
F16.0834966027
aF1.0605988502502441
aa(lp1495
F15.8446367235
aF1.0941046476364136
aa(lp1496
F20.0302877799
aF0.6864398717880249
aa(lp1497
F11.2873004896
aF2.0371034145355225
aa(lp1498
F6.99275251837
aF4.469144344329834
aa(lp1499
F18.2193137835
aF0.8389820456504822
aa(lp1500
F6.45641102169
aF5.118932247161865
aa(lp1501
F15.6093242099
aF1.131088376045227
aa(lp1502
F19.732813155
aF0.7138974666595459
aa(lp1503
F10.4215687735
aF1.027124047279358
aa(lp1504
F4.44157028043
aF8.825745582580566
aa(lp1505
F31.2224288985
aF0.43259507417678833
aa(lp1506
F21.9117114703
aF0.588843047618866
aa(lp1507
F4.90747135861
aF7.716223239898682
aa(lp1508
F11.6301805663
aF2.031996250152588
aa(lp1509
F7.06285486237
aF4.387656211853027
aa(lp1510
F7.2774068023
aF4.202885150909424
aa(lp1511
F5.72803533091
aF6.141952991485596
aa(lp1512
F9.10855387497
aF1.2675743103027344
aa(lp1513
F6.2348891695
aF5.344564437866211
aa(lp1514
F16.1639140858
aF1.0548465251922607
aa(lp1515
F8.08097846219
aF3.595289468765259
aa(lp1516
F24.3312038575
aF0.5012706518173218
aa(lp1517
F6.71923242875
aF4.767451763153076
aa(lp1518
F8.62229250912
aF2.082683801651001
aa(lp1519
F4.22547873975
aF9.58223819732666
aa(lp1520
F5.5869576491
aF6.152805328369141
aa(lp1521
F12.1036108374
aF1.8350956439971924
aa(lp1522
F31.6931109169
aF0.437101274728775
aa(lp1523
F11.864534527
aF1.9576549530029297
aa(lp1524
F19.9306346068
aF0.6955924034118652
aa(lp1525
F16.9905387864
aF0.9437792897224426
aa(lp1526
F12.9143857449
aF1.6602896451950073
aa(lp1527
F13.043852462
aF1.6457798480987549
aa(lp1528
F5.00635936329
aF7.527555465698242
aa(lp1529
F5.81438617953
aF5.971860885620117
aa(lp1530
F9.47933617765
aF1.1917411088943481
aa(lp1531
F5.3417163575
aF6.7832159996032715
aa(lp1532
F25.5755048355
aF0.4653412699699402
aa(lp1533
F21.8026979804
aF0.594901442527771
aa(lp1534
F4.93200871541
aF7.678106784820557
aa(lp1535
F18.0384780411
aF0.8502988815307617
aa(lp1536
F10.1143208955
aF1.0749828815460205
aa(lp1537
F6.26606361535
aF5.29544734954834
aa(lp1538
F22.9176908339
aF0.5495859384536743
aa(lp1539
F34.4975235989
aF0.5431859493255615
aa(lp1540
F22.0212700276
aF0.5812777280807495
aa(lp1541
F6.2038698204
aF5.392934322357178
aa(lp1542
F4.83458932029
aF7.94317102432251
aa(lp1543
F13.8483687401
aF1.427473783493042
aa(lp1544
F34.1551185356
aF0.511443555355072
aa(lp1545
F8.36809075365
aF3.1898765563964844
aa(lp1546
F34.3258941283
aF0.5264491438865662
aa(lp1547
F26.221318382
aF0.4551260471343994
aa(lp1548
F27.7000914667
aF0.4359685182571411
aa(lp1549
F6.95796270485
aF4.519079208374023
aa(lp1550
F21.0546393417
aF0.6374074220657349
aa(lp1551
F4.95666875898
aF7.653014659881592
aa(lp1552
F19.2468071556
aF0.7516354918479919
aa(lp1553
F29.7033934361
aF0.4224849343299866
aa(lp1554
F9.57436652283
aF1.1731781959533691
aa(lp1555
F26.3524249739
aF0.45212191343307495
aa(lp1556
F6.02096781407
aF5.767443656921387
aa(lp1557
F16.8218992464
aF0.9683728814125061
aa(lp1558
F14.924147935
aF1.2420876026153564
aa(lp1559
F14.6293590268
aF1.291523814201355
aa(lp1560
F34.6700112169
aF0.56905198097229
aa(lp1561
F6.39232793415
aF5.143261432647705
aa(lp1562
F4.55372549587
aF8.775312423706055
aa(lp1563
F11.0093018225
aF1.782588005065918
aa(lp1564
F5.96120671674
aF5.767443656921387
aa(lp1565
F11.1752684237
aF2.009866714477539
aa(lp1566
F11.8055069921
aF1.9762402772903442
aa(lp1567
F5.75667550757
aF6.116985321044922
aa(lp1568
F33.4804702979
aF0.4695637822151184
aa(lp1569
F8.28503329487
aF3.3705837726593018
aa(lp1570
F14.8498984428
aF1.2512857913970947
aa(lp1571
F23.263177888
aF0.5359972715377808
aa(lp1572
F8.40993120741
aF3.0637943744659424
aa(lp1573
F6.55374222489
aF4.993278503417969
aa(lp1574
F30.758737092
aF0.4269794821739197
aa(lp1575
F13.7109167992
aF1.4744362831115723
aa(lp1576
F6.52113654218
aF5.018370151519775
aa(lp1577
F13.2404901683
aF1.5964680910110474
aa(lp1578
F12.7225910938
aF1.6974602937698364
aa(lp1579
F4.31062425173
aF9.279641151428223
aa(lp1580
F19.3430411913
aF0.7474567294120789
aa(lp1581
F8.16199027128
aF3.5328712463378906
aa(lp1582
F15.7658076851
aF1.1100419759750366
aa(lp1583
F7.72626132991
aF3.864145278930664
aa(lp1584
F12.8501350695
aF1.6808348894119263
aa(lp1585
F10.318129525
aF1.0418498516082764
aa(lp1586
F5.03139116011
aF7.4901862144470215
aa(lp1587
F6.11173465649
aF5.623260498046875
aa(lp1588
F12.4712883893
aF1.7718015909194946
aa(lp1589
F15.454393911
aF1.1620473861694336
aa(lp1590
F5.31514065423
aF6.808432102203369
aa(lp1591
F13.6427032828
aF1.483089566230774
aa(lp1592
F13.9871986367
aF1.4089351892471313
aa(lp1593
F17.506669038
aF0.8831273317337036
aa(lp1594
F4.59937659397
aF8.738551139831543
aa(lp1595
F14.4841553692
aF1.3100625276565552
aa(lp1596
F20.4339081063
aF0.6573006510734558
aa(lp1597
F23.4963912463
aF0.5269381403923035
aa(lp1598
F26.7496910745
aF0.4446115791797638
aa(lp1599
F33.8161120127
aF0.4901966452598572
aa(lp1600
F11.4574579554
aF2.0308926105499268
aa(lp1601
F33.148159994
aF0.45748499035835266
aa(lp1602
F21.1599125385
aF0.6343721151351929
aa(lp1603
F11.343736992
aF2.0410757064819336
aa(lp1604
F11.2311447658
aF2.0495247840881348
aa(lp1605
F8.79603601972
aF1.5634799003601074
aa(lp1606
F8.97328054903
aF1.2973995208740234
aa(lp1607
F7.20517492369
aF4.248966217041016
aa(lp1608
F31.5354337482
aF0.43259507417678833
aa(lp1609
F5.84345811043
aF5.976290702819824
aa(lp1610
F7.84273568524
aF3.8449623584747314
aa(lp1611
F23.7319425685
aF0.5193889141082764
aa(lp1612
F12.0433938681
aF1.8569936752319336
aa(lp1613
F10.3697201726
aF1.034487009048462
aa(lp1614
F9.19986712756
aF1.2474299669265747
aa(lp1615
F5.08183085649
aF7.3268208503723145
aa(lp1616
F6.92334597497
aF4.566717147827148
aa(lp1617
F11.5147452452
aF2.02468204498291
aa(lp1618
F6.78659273385
aF4.7423601150512695
aa(lp1619
F5.26238524217
aF6.909297943115234
aa(lp1620
F28.2582621771
aF0.4318471848964691
aa(lp1621
F16.4075871111
aF1.023708462715149
aa(lp1622
F12.5963130554
aF1.7408260107040405
aa(lp1623
F8.49424076777
aF2.687183141708374
aa(lp1624
F10.7381500768
aF1.1631011962890625
aa(lp1625
F22.1313763777
aF0.5797639489173889
aa(lp1626
F13.1090717243
aF1.6272879838943481
aa(lp1627
F28.399553488
aF0.42808887362480164
aa(lp1628
F4.64548534432
aF8.656688690185547
aa(lp1629
F25.0703252313
aF0.48040086030960083
aa(lp1630
F7.46117044358
aF4.064879894256592
aa(lp1631
F14.4120948947
aF1.3286011219024658
aa(lp1632
F18.3104103524
aF0.8328803777694702
aa(lp1633
F5.53150431831
aF6.22845458984375
aa(lp1634
F20.3322468719
aF0.6633867621421814
aa(lp1635
F25.7033823597
aF0.46113431453704834
aa(lp1636
F4.57649412335
aF8.731964111328125
aa(lp1637
F16.0034792067
aF1.0698214769363403
aa(lp1638
F18.7727711591
aF0.7871177196502686
aa(lp1639
F6.88890146764
aF4.641992568969727
aa(lp1640
F14.2690476916
aF1.3499093055725098
aa(lp1641
F6.14229332977
aF5.54273796081543
aa(lp1642
F24.8214897961
aF0.48642468452453613
aa(lp1643
F9.2458664632
aF1.2362922430038452
aa(lp1644
F11.0643483316
aF1.853406548500061
aa(lp1645
F4.85876226689
aF7.7414398193359375
aa(lp1646
F25.1956768574
aF0.47615498304367065
aa(lp1647
F20.1304392188
aF0.6742364764213562
aa(lp1648
F10.2667955473
aF1.0492128133773804
aa(lp1649
F5.10724001077
aF7.351912498474121
aa(lp1650
F4.48609702249
aF8.750096321105957
aa(lp1651
F27.9777848836
aF0.4355992078781128
aa(lp1652
F18.5864420773
aF0.8105366826057434
aa(lp1653
F6.4886930768
aF5.068359375
aa(lp1654
F6.3288809031
aF5.1940131187438965
aa(lp1655
F7.09816913668
aF4.36244010925293
aa(lp1656
F12.2249495361
aF1.8197295665740967
aa(lp1657
F24.4528598768
aF0.4969664216041565
aa(lp1658
F8.53671197161
aF2.4795427322387695
aa(lp1659
F11.9834764857
aF1.894257664680481
aa(lp1660
F9.96411068144
aF1.101711630821228
aa(lp1661
F4.76278967065
aF8.179944038391113
aa(lp1662
F14.0571346299
aF1.3868931531906128
aa(lp1663
F8.66540397167
aF1.7642146348953247
aa(lp1664
F11.400455677
aF2.0184712409973145
aa(lp1665
F12.2860742838
aF1.7965821027755737
aa(lp1666
F20.5360776468
aF0.654257595539093
aa(lp1667
F22.5773346913
aF0.5616647601127625
aa(lp1668
F4.20445645746
aF9.733536720275879
aa(lp1669
F13.5072926737
aF1.523997187614441
aa(lp1670
F10.4736766174
aF1.0154480934143066
aa(lp1671
F7.38711461952
aF4.127609729766846
aa(lp1672
F8.00077073557
aF3.7076423168182373
aa(lp1673
F5.61489243735
aF6.1780219078063965
aa(lp1674
F11.5723189714
aF2.038191318511963
aa(lp1675
F7.96096590604
aF3.732609510421753
aa(lp1676
F25.9610587679
aF0.4581301808357239
aa(lp1677
F21.2657121011
aF0.6283015608787537
aa(lp1678
F25.3216552417
aF0.4713650941848755
aa(lp1679
F14.3403929301
aF1.340960144996643
aa(lp1680
F15.3775063791
aF1.180492639541626
aa(lp1681
F6.65254070815
aF4.943094730377197
aa(lp1682
F12.4092421784
aF1.7779967784881592
aa(lp1683
F18.4939722162
aF0.8145753145217896
aa(lp1684
F23.6138732025
aF0.5239184498786926
aa(lp1685
F5.13277621083
aF7.251544952392578
aa(lp1686
F4.6920563349
aF8.588747024536133
aa(lp1687
F19.0557730309
aF0.7677158713340759
aa(lp1688
F32.1708885256
aF0.4419611990451813
aa(lp1689
F9.76729480144
aF1.1397649049758911
aa(lp1690
F4.88305607822
aF7.766655921936035
aa(lp1691
F5.50398439633
aF6.354536533355713
aa(lp1692
F20.9498898923
aF0.6404426693916321
aa(lp1693
F31.0670934313
aF0.4318471848964691
aa(lp1694
F6.82052569752
aF4.7423601150512695
aa(lp1695
F22.3532434259
aF0.5677041411399841
aa(lp1696
F20.7419518252
aF0.6495484709739685
aa(lp1697
F5.64296689953
aF6.147503852844238
aa(lp1698
F29.1166778018
aF0.41907647252082825
aa(lp1699
F9.06323768653
aF1.28035569190979
aa(lp1700
F5.4222433993
aF6.548973083496094
aa(lp1701
F17.6821733951
aF0.8708616495132446
aa(lp1702
F10.5260450004
aF1.0785115957260132
aa(lp1703
F19.5369551793
aF0.7333770990371704
aa(lp1704
F29.5556153593
aF0.41989293694496155
aa(lp1705
F27.838591924
aF0.4355992078781128
aa(lp1706
F14.556576146
aF1.3067615032196045
aa(lp1707
F10.6847264446
aF1.152430534362793
aa(lp1708
F9.43217530115
aF1.2028789520263672
aa(lp1709
F6.17300479642
aF5.467835903167725
aa(lp1710
F30.6057085492
aF0.42808887362480164
aa(lp1711
F32.0108343538
aF0.4401054084300995
aa(lp1712
F14.1274203031
aF1.3868931531906128
aa(lp1713
F8.84001619982
aF1.512811541557312
aa(lp1714
F15.9238599072
aF1.0786947011947632
aa(lp1715
F16.3259573245
aF1.0421535968780518
aa(lp1716
F12.7862040493
aF1.6912652254104614
aa(lp1717
F10.9000290315
aF1.583791732788086
aa(lp1718
F16.4896250466
aF1.0206342935562134
aa(lp1719
F7.92135911049
aF3.7825441360473633
aa(lp1720
F31.8515764715
aF0.43860334157943726
aa(lp1721
F8.1213833545
aF3.570322275161743
aa(lp1722
F18.6793742877
aF0.7962702512741089
aa(lp1723
F7.76489263656
aF3.894896984100342
aatp1724
Rp1725
aa(lp1726
S'up2'
p1727
ag0
((lp1728
(lp1729
F6.6194434907
aF7.807265281677246
aa(lp1730
F4.62237347694
aF13.791513442993164
aa(lp1731
F17.7705842621
aF1.334656834602356
aa(lp1732
F23.9698552928
aF0.7808910608291626
aa(lp1733
F34.843361273
aF0.9136255979537964
aa(lp1734
F5.78545888511
aF9.511388778686523
aa(lp1735
F12.3475046552
aF2.7961018085479736
aa(lp1736
F27.0178567275
aF0.6589658856391907
aa(lp1737
F13.4400922127
aF2.4003794193267822
aa(lp1738
F28.8276803068
aF0.6335328221321106
aa(lp1739
F24.2101530921
aF0.7694073915481567
aa(lp1740
F15.1491313306
aF1.8643972873687744
aa(lp1741
F13.3732260823
aF2.4211459159851074
aa(lp1742
F33.313900794
aF0.7050986886024475
aa(lp1743
F13.5748291371
aF2.325068712234497
aa(lp1744
F7.16932828228
aF6.70500373840332
aa(lp1745
F13.7794713832
aF2.256356716156006
aa(lp1746
F8.04077458925
aF5.806737422943115
aa(lp1747
F26.8834395298
aF0.6691300272941589
aa(lp1748
F4.33217737299
aF14.63991928100586
aa(lp1749
F7.42405019262
aF6.512060642242432
aa(lp1750
F30.4534413425
aF0.647180438041687
aa(lp1751
F22.2420332596
aF0.8784347176551819
aa(lp1752
F29.8519104033
aF0.6381604671478271
aa(lp1753
F8.57939553147
aF3.773836851119995
aa(lp1754
F8.75227464648
aF2.6407852172851562
aa(lp1755
F17.8594371834
aF1.3141685724258423
aa(lp1756
F10.1648924999
aF1.7172435522079468
aa(lp1757
F7.24120079831
aF6.65797233581543
aa(lp1758
F14.7025058219
aF1.9875142574310303
aa(lp1759
F14.776018351
aF1.9683111906051636
aa(lp1760
F7.02771628096
aF7.026691436767578
aa(lp1761
F15.2248769873
aF1.8548849821090698
aa(lp1762
F8.92863736222
aF2.214606523513794
aa(lp1763
F24.0897045692
aF0.7756911516189575
aa(lp1764
F35.0175780794
aF0.9772029519081116
aa(lp1765
F20.6387580351
aF0.9988958835601807
aa(lp1766
F8.24381422375
aF5.418992519378662
aa(lp1767
F9.71870129496
aF1.8357118368148804
aa(lp1768
F6.29739393343
aF8.28283405303955
aa(lp1769
F16.7382082054
aF1.5246435403823853
aa(lp1770
F9.62223835545
aF1.8594366312026978
aa(lp1771
F23.1474406845
aF0.8153421878814697
aa(lp1772
F5.99101275032
aF9.115080833435059
aa(lp1773
F30.0011699553
aF0.6453789472579956
aa(lp1774
F22.6902213647
aF0.848158597946167
aa(lp1775
F10.5786752254
aF1.835447907447815
aa(lp1776
F21.5862953693
aF0.9292054772377014
aa(lp1777
F9.67034954722
aF1.847555160522461
aa(lp1778
F19.8314772207
aF1.0740331411361694
aa(lp1779
F17.1608689377
aF1.4343998432159424
aa(lp1780
F7.80371709974
aF6.05681037902832
aa(lp1781
F10.7918408272
aF2.1075448989868164
aa(lp1782
F26.4841870988
aF0.6787957549095154
aa(lp1783
F7.35036280549
aF6.571441173553467
aa(lp1784
F7.88194936367
aF6.00291109085083
aa(lp1785
F9.01814695177
aF2.0489754676818848
aa(lp1786
F31.3785410429
aF0.6516337394714355
aa(lp1787
F18.96096819
aF1.1886169910430908
aa(lp1788
F15.073762518
aF1.892933964729309
aa(lp1789
F4.28917835993
aF14.996991157531738
aa(lp1790
F21.478900865
aF0.9431435465812683
aa(lp1791
F7.61151676327
aF6.281479835510254
aa(lp1792
F9.91453799148
aF1.776495337486267
aa(lp1793
F15.687370831
aF1.7312260866165161
aa(lp1794
F4.98145210278
aF11.968498229980469
aa(lp1795
F5.05654811591
aF11.770343780517578
aa(lp1796
F8.45198086345
aF4.591206073760986
aa(lp1797
F5.93154897188
aF9.244176864624023
aa(lp1798
F23.0322792881
aF0.8251732587814331
aa(lp1799
F30.151175805
aF0.6448459029197693
aa(lp1800
F28.1176738081
aF0.6521723866462708
aa(lp1801
F12.1641288916
aF2.8446452617645264
aa(lp1802
F4.78660361901
aF12.775214195251465
aa(lp1803
F16.2447336562
aF1.615983247756958
aa(lp1804
F24.5751241762
aF0.7504467368125916
aa(lp1805
F17.0754914803
aF1.444879174232483
aa(lp1806
F23.3794937774
aF0.8107486963272095
aa(lp1807
F6.36052530761
aF8.203573226928711
aa(lp1808
F4.37560745116
aF14.408268928527832
aa(lp1809
F4.39748548841
aF14.345558166503906
aa(lp1810
F8.88421628081
aF2.356623411178589
aa(lp1811
F17.5942023832
aF1.3584051132202148
aa(lp1812
F28.6842590117
aF0.6403206586837769
aa(lp1813
F7.68782221882
aF6.1229567527771
aa(lp1814
F9.15409664434
aF2.0016002655029297
aa(lp1815
F5.67118173403
aF9.749174118041992
aa(lp1816
F10.8458000313
aF2.4051878452301025
aa(lp1817
F8.20280022263
aF5.512477397918701
aa(lp1818
F15.5316658805
aF1.7728286981582642
aa(lp1819
F5.47660138938
aF10.11701774597168
aa(lp1820
F21.6942268461
aF0.9192270040512085
aa(lp1821
F10.9545291766
aF2.7200028896331787
aa(lp1822
F22.8036724716
aF0.8406062722206116
aa(lp1823
F4.26783916411
aF15.076340675354004
aa(lp1824
F4.73909419965
aF13.197052001953125
aa(lp1825
F14.9987686747
aF1.9119584560394287
aa(lp1826
F6.58651093602
aF7.807265281677246
aa(lp1827
F32.9832437751
aF0.6861883401870728
aa(lp1828
F6.85462832601
aF7.40924072265625
aa(lp1829
F17.2466732824
aF1.4154012203216553
aa(lp1830
F13.9176105838
aF2.2001683712005615
aa(lp1831
F6.75282859089
aF7.5496649742126465
aa(lp1832
F5.36842493929
aF10.621050834655762
aa(lp1833
F27.2887107412
aF0.6560935974121094
aa(lp1834
F5.15844009188
aF11.346929550170898
aa(lp1835
F5.39526706398
aF10.462528228759766
aa(lp1836
F21.3720406616
aF0.9517248868942261
aa(lp1837
F19.6346399552
aF1.1080996990203857
aa(lp1838
F19.1510518961
aF1.1651265621185303
aa(lp1839
F27.5622800663
aF0.6544368863105774
aa(lp1840
F32.3317429682
aF0.6719850897789001
aa(lp1841
F20.2310914149
aF1.0275381803512573
aa(lp1842
F4.53107014514
aF13.76707935333252
aa(lp1843
F8.70873099153
aF2.7118375301361084
aa(lp1844
F27.1529460111
aF0.6538233757019043
aa(lp1845
F10.064000891
aF1.7409296035766602
aa(lp1846
F12.6592946207
aF2.6656980514526367
aa(lp1847
F5.23620422107
aF10.977727890014648
aa(lp1848
F15.3010013722
aF1.8393691778182983
aa(lp1849
F4.46377813183
aF13.887969970703125
aa(lp1850
F13.1746170829
aF2.5059962272644043
aa(lp1851
F12.5336448313
aF2.7382006645202637
aa(lp1852
F32.6558686915
aF0.6759188771247864
aa(lp1853
F24.9455972451
aF0.7330065965652466
aa(lp1854
F7.13365998236
aF6.724841117858887
aa(lp1855
F24.6979997971
aF0.7421406507492065
aa(lp1856
F26.0908640617
aF0.6941655278205872
aa(lp1857
F9.81613127544
aF1.8061035871505737
aa(lp1858
F27.4251542949
aF0.6560935974121094
aa(lp1859
F5.4493546163
aF10.275715827941895
aa(lp1860
F33.6478726494
aF0.7263363599777222
aa(lp1861
F25.8318992715
aF0.6941655278205872
aa(lp1862
F9.86521193182
aF1.7883753776550293
aa(lp1863
F19.4397563973
aF1.1298270225524902
aa(lp1864
F20.8456615844
aF0.9896038174629211
aa(lp1865
F18.8666350149
aF1.207409381866455
aa(lp1866
F32.4934016831
aF0.673681914806366
aa(lp1867
F25.4482635179
aF0.7084536552429199
aa(lp1868
F16.6549335377
aF1.5436421632766724
aa(lp1869
F7.31379383631
aF6.578710556030273
aa(lp1870
F6.08132801641
aF8.956558227539062
aa(lp1871
F6.68580341169
aF7.5496649742126465
aa(lp1872
F17.3329066488
aF1.3916528224945068
aa(lp1873
F6.42428957382
aF8.15804672241211
aa(lp1874
F10.0139312348
aF1.7527726888656616
aa(lp1875
F9.38524905587
aF1.9304978847503662
aa(lp1876
F5.6995376427
aF9.698813438415527
aa(lp1877
F5.5591618399
aF9.8027982711792
aa(lp1878
F4.71551661657
aF13.419991493225098
aa(lp1879
F17.9487343693
aF1.3069993257522583
aa(lp1880
F14.1980574046
aF2.113698720932007
aa(lp1881
F18.1286704313
aF1.2966731786727905
aa(lp1882
F17.4195711821
aF1.3783386945724487
aa(lp1883
F11.7467731264
aF3.095684051513672
aa(lp1884
F4.8105366371
aF12.576841354370117
aa(lp1885
F11.6883314691
aF3.13211727142334
aa(lp1886
F32.819148035
aF0.6821313500404358
aa(lp1887
F30.3019316841
aF0.6448459029197693
aa(lp1888
F7.53596867728
aF6.3648529052734375
aa(lp1889
F18.4019624042
aF1.2731826305389404
aa(lp1890
F16.5720731719
aF1.5589485168457031
aa(lp1891
F7.57364852066
aF6.254745006561279
aa(lp1892
F10.2157169624
aF1.7054004669189453
aa(lp1893
F16.9060087427
aF1.4781494140625
aa(lp1894
F23.8506022814
aF0.7854845523834229
aa(lp1895
F28.9718187083
aF0.6335328221321106
aa(lp1896
F33.9851925727
aF0.7642714977264404
aa(lp1897
F30.9125307774
aF0.6493711471557617
aa(lp1898
F4.50852750761
aF13.727404594421387
aa(lp1899
F5.87267540098
aF9.392496109008789
aa(lp1900
F22.4650096431
aF0.855721652507782
aa(lp1901
F9.33855627449
aF1.9423414468765259
aa(lp1902
F5.90203877799
aF9.31323528289795
aa(lp1903
F11.1196700733
aF3.0679922103881836
aa(lp1904
F4.24660613344
aF15.235038757324219
aa(lp1905
F11.9238571997
aF3.017547845840454
aa(lp1906
F9.29209579552
aF1.9542251825332642
aa(lp1907
F7.64957434708
aF6.215158462524414
aa(lp1908
F5.2101534538
aF11.108881950378418
aa(lp1909
F4.66871277104
aF13.596744537353516
aa(lp1910
F7.4984762958
aF6.420187473297119
aa(lp1911
F6.05107265314
aF9.07544994354248
aa(lp1912
F13.3066926192
aF2.4499690532684326
aa(lp1913
F5.18423229234
aF11.215513229370117
aa(lp1914
F9.52673285854
aF1.883123755455017
aa(lp1915
F29.4085724968
aF0.6312702298164368
aa(lp1916
F12.9789576736
aF2.5652616024017334
aa(lp1917
F28.5415512554
aF0.644312858581543
aa(lp1918
F29.2622611908
aF0.6312702298164368
aa(lp1919
F4.41947291585
aF14.088085174560547
aa(lp1920
F5.28869716839
aF10.799017906188965
aa(lp1921
F4.35383825986
aF14.504953384399414
aa(lp1922
F8.32645846134
aF5.245276927947998
aa(lp1923
F26.6166080343
aF0.6748172640800476
aa(lp1924
F10.6315686016
aF1.8768162727355957
aa(lp1925
F16.0834966027
aF1.6397477388381958
aa(lp1926
F15.8446367235
aF1.6884210109710693
aa(lp1927
F20.0302877799
aF1.0469162464141846
aa(lp1928
F11.2873004896
aF3.1844491958618164
aa(lp1929
F6.99275251837
aF7.086071968078613
aa(lp1930
F18.2193137835
aF1.2919750213623047
aa(lp1931
F6.45641102169
aF8.053939819335938
aa(lp1932
F15.6093242099
aF1.7454943656921387
aa(lp1933
F19.732813155
aF1.0940730571746826
aa(lp1934
F10.4215687735
aF1.652106761932373
aa(lp1935
F4.44157028043
aF14.008039474487305
aa(lp1936
F31.2224288985
aF0.6521723866462708
aa(lp1937
F21.9117114703
aF0.9013293385505676
aa(lp1938
F4.90747135861
aF12.193724632263184
aa(lp1939
F11.6301805663
aF3.167930841445923
aa(lp1940
F7.06285486237
aF6.903376579284668
aa(lp1941
F7.2774068023
aF6.638156890869141
aa(lp1942
F5.72803533091
aF9.73840045928955
aa(lp1943
F9.10855387497
aF2.013444185256958
aa(lp1944
F6.2348891695
aF8.441357612609863
aa(lp1945
F16.1639140858
aF1.6338858604431152
aa(lp1946
F8.08097846219
aF5.6751627922058105
aa(lp1947
F24.3312038575
aF0.7625171542167664
aa(lp1948
F6.71923242875
aF7.529849529266357
aa(lp1949
F8.62229250912
aF3.484344482421875
aa(lp1950
F4.22547873975
aF15.208727836608887
aa(lp1951
F5.5869576491
aF9.723100662231445
aa(lp1952
F12.1036108374
aF2.857858657836914
aa(lp1953
F31.6931109169
aF0.6589658856391907
aa(lp1954
F11.864534527
aF3.066061496734619
aa(lp1955
F19.9306346068
aF1.0608751773834229
aa(lp1956
F16.9905387864
aF1.4591377973556519
aa(lp1957
F12.9143857449
aF2.5765321254730225
aa(lp1958
F13.043852462
aF2.563605308532715
aa(lp1959
F5.00635936329
aF11.889236450195312
aa(lp1960
F5.81438617953
aF9.432126998901367
aa(lp1961
F9.47933617765
aF1.9008890390396118
aa(lp1962
F5.3417163575
aF10.67246150970459
aa(lp1963
F25.5755048355
aF0.7038378119468689
aa(lp1964
F21.8026979804
aF0.9077932834625244
aa(lp1965
F4.93200871541
aF12.127020835876465
aa(lp1966
F18.0384780411
aF1.3069993257522583
aa(lp1967
F10.1143208955
aF1.7290866374969482
aa(lp1968
F6.26606361535
aF8.331661224365234
aa(lp1969
F22.9176908339
aF0.8360128402709961
aa(lp1970
F34.4975235989
aF0.8299347162246704
aa(lp1971
F22.0212700276
aF0.8870040774345398
aa(lp1972
F6.2038698204
aF8.550790786743164
aa(lp1973
F4.83458932029
aF12.497492790222168
aa(lp1974
F13.8483687401
aF2.219383716583252
aa(lp1975
F34.1551185356
aF0.7828556299209595
aa(lp1976
F8.36809075365
aF5.018834114074707
aa(lp1977
F34.3258941283
aF0.8043624758720398
aa(lp1978
F26.221318382
aF0.6896135807037354
aa(lp1979
F27.7000914667
aF0.6584216356277466
aa(lp1980
F6.95796270485
aF7.16524600982666
aa(lp1981
F21.0546393417
aF0.9756657481193542
aa(lp1982
F4.95666875898
aF12.087389945983887
aa(lp1983
F19.2468071556
aF1.1540136337280273
aa(lp1984
F29.7033934361
aF0.636437177658081
aa(lp1985
F9.57436652283
aF1.8712801933288574
aa(lp1986
F26.3524249739
aF0.6833361983299255
aa(lp1987
F6.02096781407
aF9.103907585144043
aa(lp1988
F16.8218992464
aF1.4971609115600586
aa(lp1989
F14.924147935
aF1.931152105331421
aa(lp1990
F14.6293590268
aF2.0080137252807617
aa(lp1991
F34.6700112169
aF0.8694553971290588
aa(lp1992
F6.39232793415
aF8.154921531677246
aa(lp1993
F4.55372549587
aF13.806753158569336
aa(lp1994
F11.0093018225
aF2.8556957244873047
aa(lp1995
F5.96120671674
aF9.144596099853516
aa(lp1996
F11.1752684237
aF3.1583943367004395
aa(lp1997
F11.8055069921
aF3.0810060501098633
aa(lp1998
F5.75667550757
aF9.655659675598145
aa(lp1999
F33.4804702979
aF0.714285671710968
aa(lp2000
F8.28503329487
aF5.320465087890625
aa(lp2001
F14.8498984428
aF1.9491081237792969
aa(lp2002
F23.263177888
aF0.8153421878814697
aa(lp2003
F8.40993120741
aF4.862790584564209
aa(lp2004
F6.55374222489
aF7.886526584625244
aa(lp2005
F30.758737092
aF0.6448459029197693
aa(lp2006
F13.7109167992
aF2.288114309310913
aa(lp2007
F6.52113654218
aF7.926157474517822
aa(lp2008
F13.2404901683
aF2.486793041229248
aa(lp2009
F12.7225910938
aF2.6342155933380127
aa(lp2010
F4.31062425173
aF14.728452682495117
aa(lp2011
F19.3430411913
aF1.1455038785934448
aa(lp2012
F8.16199027128
aF5.5517120361328125
aa(lp2013
F15.7658076851
aF1.7193799018859863
aa(lp2014
F7.72626132991
aF6.1031413078308105
aa(lp2015
F12.8501350695
aF2.613300323486328
aa(lp2016
F10.318129525
aF1.6757928133010864
aa(lp2017
F5.03139116011
aF11.8760986328125
aa(lp2018
F6.11173465649
aF8.847431182861328
aa(lp2019
F12.4712883893
aF2.7495827674865723
aa(lp2020
F15.454393911
aF1.7965930700302124
aa(lp2021
F5.31514065423
aF10.712136268615723
aa(lp2022
F13.6427032828
aF2.3058531284332275
aa(lp2023
F13.9871986367
aF2.1905605792999268
aa(lp2024
F17.506669038
aF1.3679044246673584
aa(lp2025
F4.59937659397
aF13.855448722839355
aa(lp2026
F14.4841553692
aF2.036837100982666
aa(lp2027
F20.4339081063
aF1.0042906999588013
aa(lp2028
F23.4963912463
aF0.801561713218689
aa(lp2029
F26.7496910745
aF0.6719850897789001
aa(lp2030
F33.8161120127
aF0.743005633354187
aa(lp2031
F11.4574579554
aF3.1747405529022217
aa(lp2032
F33.148159994
aF0.6959117650985718
aa(lp2033
F21.1599125385
aF0.9710196852684021
aa(lp2034
F11.343736992
aF3.1786386966705322
aa(lp2035
F11.2311447658
aF3.203866720199585
aa(lp2036
F8.79603601972
aF2.5578904151916504
aa(lp2037
F8.97328054903
aF2.060819149017334
aa(lp2038
F7.20517492369
aF6.685166835784912
aa(lp2039
F31.5354337482
aF0.6521723866462708
aa(lp2040
F5.84345811043
aF9.402874946594238
aa(lp2041
F7.84273568524
aF6.042145729064941
aa(lp2042
F23.7319425685
aF0.7900780439376831
aa(lp2043
F12.0433938681
aF2.902897357940674
aa(lp2044
F10.3697201726
aF1.663949728012085
aa(lp2045
F9.19986712756
aF1.989715576171875
aa(lp2046
F5.08183085649
aF11.572190284729004
aa(lp2047
F6.92334597497
aF7.212803363800049
aa(lp2048
F11.5147452452
aF3.165031909942627
aa(lp2049
F6.78659273385
aF7.490218639373779
aa(lp2050
F5.26238524217
aF10.870834350585938
aa(lp2051
F28.2582621771
aF0.6533558368682861
aa(lp2052
F16.4075871111
aF1.582713007926941
aa(lp2053
F12.5963130554
aF2.7015130519866943
aa(lp2054
F8.49424076777
aF4.324467658996582
aa(lp2055
F10.7381500768
aF1.9360219240188599
aa(lp2056
F22.1313763777
aF0.8803380131721497
aa(lp2057
F13.1090717243
aF2.5348007678985596
aa(lp2058
F28.399553488
aF0.6453789472579956
aa(lp2059
F4.64548534432
aF13.672621726989746
aa(lp2060
F25.0703252313
aF0.7266157865524292
aa(lp2061
F7.46117044358
aF6.420187473297119
aa(lp2062
F14.4120948947
aF2.065660238265991
aa(lp2063
F18.3104103524
aF1.2825788259506226
aa(lp2064
F5.53150431831
aF9.842647552490234
aa(lp2065
F20.3322468719
aF1.0135897397994995
aa(lp2066
F25.7033823597
aF0.6987174153327942
aa(lp2067
F4.57649412335
aF13.791513442993164
aa(lp2068
F16.0034792067
aF1.6540063619613647
aa(lp2069
F18.7727711591
aF1.212107539176941
aa(lp2070
F6.88890146764
aF7.331695556640625
aa(lp2071
F14.2690476916
aF2.1027324199676514
aa(lp2072
F6.14229332977
aF8.788312911987305
aa(lp2073
F24.8214897961
aF0.7357269525527954
aa(lp2074
F9.2458664632
aF1.9719502925872803
aa(lp2075
F11.0643483316
aF2.941688299179077
aa(lp2076
F4.85876226689
aF12.2870512008667
aa(lp2077
F25.1956768574
aF0.7214769124984741
aa(lp2078
F20.1304392188
aF1.0382781028747559
aa(lp2079
F10.2667955473
aF1.687635898590088
aa(lp2080
F5.10724001077
aF11.611820220947266
aa(lp2081
F4.48609702249
aF13.887969970703125
aa(lp2082
F27.9777848836
aF0.656701385974884
aa(lp2083
F18.5864420773
aF1.2458806037902832
aa(lp2084
F6.4886930768
aF8.036160469055176
aa(lp2085
F6.3288809031
aF8.203573226928711
aa(lp2086
F7.09816913668
aF6.863702297210693
aa(lp2087
F12.2249495361
aF2.8446452617645264
aa(lp2088
F24.4528598768
aF0.7573316097259521
aa(lp2089
F8.53671197161
aF4.039106845855713
aa(lp2090
F11.9834764857
aF2.9611494541168213
aa(lp2091
F9.96411068144
aF1.7646520137786865
aa(lp2092
F4.76278967065
aF12.919636726379395
aa(lp2093
F14.0571346299
aF2.160341501235962
aa(lp2094
F8.66540397167
aF2.936595916748047
aa(lp2095
F11.400455677
aF3.155323028564453
aa(lp2096
F12.2860742838
aF2.8137905597686768
aa(lp2097
F20.5360776468
aF0.9996412396430969
aa(lp2098
F22.5773346913
aF0.8543867468833923
aa(lp2099
F4.20445645746
aF15.381627082824707
aa(lp2100
F13.5072926737
aF2.365025758743286
aa(lp2101
F10.4736766174
aF1.6402299404144287
aa(lp2102
F7.38711461952
aF6.5192646980285645
aa(lp2103
F8.00077073557
aF5.82635498046875
aa(lp2104
F5.61489243735
aF9.720272064208984
aa(lp2105
F11.5723189714
aF3.177589178085327
aa(lp2106
F7.96096590604
aF5.865589618682861
aa(lp2107
F25.9610587679
aF0.6941655278205872
aa(lp2108
F21.2657121011
aF0.9617276191711426
aa(lp2109
F25.3216552417
aF0.7129489779472351
aa(lp2110
F14.3403929301
aF2.0848755836486816
aa(lp2111
F15.3775063791
aF1.8251105546951294
aa(lp2112
F6.65254070815
aF7.772757053375244
aa(lp2113
F12.4092421784
aF2.7591967582702637
aa(lp2114
F18.4939722162
aF1.2543903589248657
aa(lp2115
F23.6138732025
aF0.7969682812690735
aa(lp2116
F5.13277621083
aF11.45329761505127
aa(lp2117
F4.6920563349
aF13.617926597595215
aa(lp2118
F19.0557730309
aF1.1800605058670044
aa(lp2119
F32.1708885256
aF0.6674720644950867
aa(lp2120
F9.76729480144
aF1.8179842233657837
aa(lp2121
F4.88305607822
aF12.219770431518555
aa(lp2122
F5.50398439633
aF9.997993469238281
aa(lp2123
F20.9498898923
aF0.9803117513656616
aa(lp2124
F31.0670934313
aF0.6533558368682861
aa(lp2125
F6.82052569752
aF7.4571123123168945
aa(lp2126
F22.3532434259
aF0.8635736703872681
aa(lp2127
F20.7419518252
aF0.9942498207092285
aa(lp2128
F5.64296689953
aF9.709543228149414
aa(lp2129
F29.1166778018
aF0.6317920088768005
aa(lp2130
F9.06323768653
aF2.025329351425171
aa(lp2131
F5.4222433993
aF10.343635559082031
aa(lp2132
F17.6821733951
aF1.3489058017730713
aa(lp2133
F10.5260450004
aF1.7644708156585693
aa(lp2134
F19.5369551793
aF1.1205281019210815
aa(lp2135
F29.5556153593
aF0.6336504817008972
aa(lp2136
F27.838591924
aF0.656701385974884
aa(lp2137
F14.556576146
aF2.026057481765747
aa(lp2138
F10.6847264446
aF1.9182602167129517
aa(lp2139
F9.43217530115
aF1.9186543226242065
aa(lp2140
F6.17300479642
aF8.669551849365234
aa(lp2141
F30.6057085492
aF0.6453789472579956
aa(lp2142
F32.0108343538
aF0.6651744842529297
aa(lp2143
F14.1274203031
aF2.160341501235962
aa(lp2144
F8.84001619982
aF2.4749958515167236
aa(lp2145
F15.9238599072
aF1.6646404266357422
aa(lp2146
F16.3259573245
aF1.6112303733825684
aa(lp2147
F12.7862040493
aF2.6246018409729004
aa(lp2148
F10.9000290315
aF2.5799529552459717
aa(lp2149
F16.4896250466
aF1.5779601335525513
aa(lp2150
F7.92135911049
aF5.944058895111084
aa(lp2151
F31.8515764715
aF0.6612303853034973
aa(lp2152
F8.1213833545
aF5.610564231872559
aa(lp2153
F18.6793742877
aF1.2262017726898193
aa(lp2154
F7.76489263656
aF6.120615482330322
aatp2155
Rp2156
aa(lp2157
S'obs'
p2158
ag0
((lp2159
(lp2160
F6.6194434907
aF1.9926601899176195
aa(lp2161
F4.62237347694
aF3.5766168194572074
aa(lp2162
F17.7705842621
aF0.5673833712951396
aa(lp2163
F23.9698552928
aF0.32329152220395574
aa(lp2164
F34.843361273
aF0.21565143353665753
aa(lp2165
F5.78545888511
aF4.160819138076234
aa(lp2166
F12.3475046552
aF1.357685127471997
aa(lp2167
F27.0178567275
aF0.18071871701234507
aa(lp2168
F13.4400922127
aF0.8967916270315994
aa(lp2169
F28.8276803068
aF0.1925052981663723
aa(lp2170
F24.2101530921
aF0.31256030110275246
aa(lp2171
F15.1491313306
aF0.8602426419251068
aa(lp2172
F13.3732260823
aF1.079267098930759
aa(lp2173
F33.313900794
aF0.4009182412276375
aa(lp2174
F13.5748291371
aF0.6126195239203942
aa(lp2175
F7.16932828228
aF2.6233142734337553
aa(lp2176
F13.7794713832
aF0.988987427147796
aa(lp2177
F8.04077458925
aF1.8911440734907456
aa(lp2178
F26.8834395298
aF0.24239258038713807
aa(lp2179
F4.33217737299
aF8.248361508983521
aa(lp2180
F7.42405019262
aF1.6619252459484146
aa(lp2181
F30.4534413425
aF0.4694975062255673
aa(lp2182
F22.2420332596
aF0.3669915253936189
aa(lp2183
F29.8519104033
aF0.30309683335334847
aa(lp2184
F8.57939553147
aF2.537250130125487
aa(lp2185
F8.75227464648
aF1.2022617171119372
aa(lp2186
F17.8594371834
aF0.45129488216214403
aa(lp2187
F10.1648924999
aF0.508975750653432
aa(lp2188
F7.24120079831
aF2.107050129978297
aa(lp2189
F14.7025058219
aF0.8396895034211656
aa(lp2190
F14.776018351
aF0.8212166706055215
aa(lp2191
F7.02771628096
aF2.998532981734996
aa(lp2192
F15.2248769873
aF1.1206562246849119
aa(lp2193
F8.92863736222
aF1.1067069615667822
aa(lp2194
F24.0897045692
aF0.318410673769342
aa(lp2195
F35.0175780794
aF0.262087648863496
aa(lp2196
F20.6387580351
aF0.5003089335795288
aa(lp2197
F8.24381422375
aF2.1814702669366297
aa(lp2198
F9.71870129496
aF0.5506149355516774
aa(lp2199
F6.29739393343
aF3.5614481098234316
aa(lp2200
F16.7382082054
aF0.4457051627506771
aa(lp2201
F9.62223835545
aF0.5599911735892127
aa(lp2202
F23.1474406845
aF0.2273130208044679
aa(lp2203
F5.99101275032
aF2.6930326376228635
aa(lp2204
F30.0011699553
aF0.5184755716237578
aa(lp2205
F22.6902213647
aF0.2355727310174863
aa(lp2206
F10.5786752254
aF0.4953204661187107
aa(lp2207
F21.5862953693
aF0.40054028671404934
aa(lp2208
F9.67034954722
aF0.5552519832681329
aa(lp2209
F19.8314772207
aF0.7436432280518942
aa(lp2210
F17.1608689377
aF1.3117760298640613
aa(lp2211
F7.80371709974
aF1.2702159855063275
aa(lp2212
F10.7918408272
aF0.6989058965055377
aa(lp2213
F26.4841870988
aF0.22849329379833752
aa(lp2214
F7.35036280549
aF2.0355800848836663
aa(lp2215
F7.88194936367
aF1.4633370195196465
aa(lp2216
F9.01814695177
aF0.6241367907019837
aa(lp2217
F31.3785410429
aF0.3542263326638025
aa(lp2218
F18.96096819
aF0.6829544138110589
aa(lp2219
F15.073762518
aF0.7038227349971867
aa(lp2220
F4.28917835993
aF5.435966413618064
aa(lp2221
F21.478900865
aF0.35533935812140255
aa(lp2222
F7.61151676327
aF1.4355970139916734
aa(lp2223
F9.91453799148
aF0.5323020289859239
aa(lp2224
F15.687370831
aF1.6113982603420314
aa(lp2225
F4.98145210278
aF2.853761470685991
aa(lp2226
F5.05654811591
aF3.1019102093015656
aa(lp2227
F8.45198086345
aF2.6510542833752893
aa(lp2228
F5.93154897188
aF2.0061498872661496
aa(lp2229
F23.0322792881
aF0.25759782777909035
aa(lp2230
F30.151175805
aF0.4301625323520902
aa(lp2231
F28.1176738081
aF0.3879283432766999
aa(lp2232
F12.1641288916
aF1.2345428830627707
aa(lp2233
F4.78660361901
aF3.482290384253488
aa(lp2234
F16.2447336562
aF0.6870658511476657
aa(lp2235
F24.5751241762
aF0.2852531825419387
aa(lp2236
F17.0754914803
aF1.2158984694271275
aa(lp2237
F23.3794937774
aF0.2716591733449702
aa(lp2238
F6.36052530761
aF3.490037294778638
aa(lp2239
F4.37560745116
aF6.298647371416094
aa(lp2240
F4.39748548841
aF6.281756792015845
aa(lp2241
F8.88421628081
aF1.0961436097245514
aa(lp2242
F17.5942023832
aF0.8827589144797385
aa(lp2243
F28.6842590117
aF0.23598050307510215
aa(lp2244
F7.68782221882
aF1.1968188314124104
aa(lp2245
F9.15409664434
aF0.6088704693382695
aa(lp2246
F5.67118173403
aF4.780268077591939
aa(lp2247
F10.8458000313
aF0.7214510106115135
aa(lp2248
F8.20280022263
aF1.7537345370009652
aa(lp2249
F15.5316658805
aF1.7929931431823931
aa(lp2250
F5.47660138938
aF4.945358172893558
aa(lp2251
F21.6942268461
aF0.4123107319070218
aa(lp2252
F10.9545291766
aF0.8269942723290238
aa(lp2253
F22.8036724716
aF0.23997010576088595
aa(lp2254
F4.26783916411
aF5.495222528519886
aa(lp2255
F4.73909419965
aF3.524277995142251
aa(lp2256
F14.9987686747
aF0.6324710651888465
aa(lp2257
F6.58651093602
aF2.265249299808695
aa(lp2258
F32.9832437751
aF0.383530753686868
aa(lp2259
F6.85462832601
aF3.74259247885213
aa(lp2260
F17.2466732824
aF1.2244044302039212
aa(lp2261
F13.9176105838
aF0.7569583034911878
aa(lp2262
F6.75282859089
aF2.9075805384114384
aa(lp2263
F5.36842493929
aF4.154243974902948
aa(lp2264
F27.2887107412
aF0.23620624988274944
aa(lp2265
F5.15844009188
aF3.822601160572227
aa(lp2266
F5.39526706398
aF4.1303126460800375
aa(lp2267
F21.3720406616
aF0.3584857674585072
aa(lp2268
F19.6346399552
aF0.5651273706158937
aa(lp2269
F19.1510518961
aF0.5755763084288894
aa(lp2270
F27.5622800663
aF0.3262966836072601
aa(lp2271
F32.3317429682
aF0.43975576683387185
aa(lp2272
F20.2310914149
aF0.7701689509173569
aa(lp2273
F4.53107014514
aF4.418338131113556
aa(lp2274
F8.70873099153
aF1.0981084900171787
aa(lp2275
F27.1529460111
aF0.16123087363907718
aa(lp2276
F10.064000891
aF0.5188256821800269
aa(lp2277
F12.6592946207
aF1.3352790378995216
aa(lp2278
F5.23620422107
aF3.8807210123719353
aa(lp2279
F15.3010013722
aF1.2936545173964977
aa(lp2280
F4.46377813183
aF5.581214705953847
aa(lp2281
F13.1746170829
aF1.189683551024708
aa(lp2282
F12.5336448313
aF1.379998885247531
aa(lp2283
F32.6558686915
aF0.3949676766557083
aa(lp2284
F24.9455972451
aF0.2250046348073898
aa(lp2285
F7.13365998236
aF2.191625619884503
aa(lp2286
F24.6979997971
aF0.22026783304034253
aa(lp2287
F26.0908640617
aF0.35456442836048785
aa(lp2288
F9.81613127544
aF0.5414614918357054
aa(lp2289
F27.4251542949
aF0.27394339093297215
aa(lp2290
F5.4493546163
aF4.945184965397213
aa(lp2291
F33.6478726494
aF0.39937432161110065
aa(lp2292
F25.8318992715
aF0.2660625613869295
aa(lp2293
F9.86521193182
aF0.5369014641925718
aa(lp2294
F19.4397563973
aF0.627071598192809
aa(lp2295
F20.8456615844
aF0.3091557621264043
aa(lp2296
F18.8666350149
aF0.611053502489246
aa(lp2297
F32.4934016831
aF0.42058137050034555
aa(lp2298
F25.4482635179
aF0.2617267629900295
aa(lp2299
F16.6549335377
aF0.4930766572980127
aa(lp2300
F7.31379383631
aF1.7135557728064783
aa(lp2301
F6.08132801641
aF2.164753189367501
aa(lp2302
F6.68580341169
aF2.4186434136618935
aa(lp2303
F17.3329066488
aF1.1535313065216837
aa(lp2304
F6.42428957382
aF2.4060804579443342
aa(lp2305
F10.0139312348
aF0.5233503969456466
aa(lp2306
F9.38524905587
aF0.5843326285111197
aa(lp2307
F5.6995376427
aF5.063417919256312
aa(lp2308
F5.5591618399
aF3.8309168887674567
aa(lp2309
F4.71551661657
aF3.50589258268557
aa(lp2310
F17.9487343693
aF0.43842774487700154
aa(lp2311
F14.1980574046
aF0.9716634419093323
aa(lp2312
F18.1286704313
aF0.3671020974188647
aa(lp2313
F17.4195711821
aF1.2420300883333626
aa(lp2314
F11.7467731264
aF2.8897718809126394
aa(lp2315
F4.8105366371
aF3.5007589518884266
aa(lp2316
F11.6883314691
aF3.404182667146928
aa(lp2317
F32.819148035
aF0.4423590405464367
aa(lp2318
F30.3019316841
aF0.39875388758409186
aa(lp2319
F7.53596867728
aF1.469305363555402
aa(lp2320
F18.4019624042
aF0.3494109087511187
aa(lp2321
F16.5720731719
aF0.40654428455278124
aa(lp2322
F7.57364852066
aF1.4461439425868412
aa(lp2323
F10.2157169624
aF0.5045688168085758
aa(lp2324
F16.9060087427
aF0.7876286897904249
aa(lp2325
F23.8506022814
aF0.31115430023872137
aa(lp2326
F28.9718187083
aF0.2448506879567515
aa(lp2327
F33.9851925727
aF0.3345069835166042
aa(lp2328
F30.9125307774
aF0.48520112250219166
aa(lp2329
F4.50852750761
aF4.43531072503089
aa(lp2330
F5.87267540098
aF2.459872284676708
aa(lp2331
F22.4650096431
aF0.22499695875273698
aa(lp2332
F9.33855627449
aF0.589012033694862
aa(lp2333
F5.90203877799
aF2.485619872367139
aa(lp2334
F11.1196700733
aF1.1823611319218892
aa(lp2335
F4.24660613344
aF4.527834851354493
aa(lp2336
F11.9238571997
aF1.9895483968990242
aa(lp2337
F9.29209579552
aF0.5936846040497308
aa(lp2338
F7.64957434708
aF1.204504139190226
aa(lp2339
F5.2101534538
aF3.8682579345744927
aa(lp2340
F4.66871277104
aF3.594708449946535
aa(lp2341
F7.4984762958
aF1.4851529089766067
aa(lp2342
F6.05107265314
aF2.1842627448301775
aa(lp2343
F13.3066926192
aF1.0915573733578112
aa(lp2344
F5.18423229234
aF3.773557780445584
aa(lp2345
F9.52673285854
aF0.5693727906540672
aa(lp2346
F29.4085724968
aF0.19140611372731278
aa(lp2347
F12.9789576736
aF0.8296287959747246
aa(lp2348
F28.5415512554
aF0.28870948077036884
aa(lp2349
F29.2622611908
aF0.19811008014841505
aa(lp2350
F4.41947291585
aF6.300232682496368
aa(lp2351
F5.28869716839
aF3.4103707656878117
aa(lp2352
F4.35383825986
aF7.1650514431152015
aa(lp2353
F8.32645846134
aF1.9748747813787764
aa(lp2354
F26.6166080343
aF0.2335827755004441
aa(lp2355
F10.6315686016
aF0.6604992995665249
aa(lp2356
F16.0834966027
aF0.9928691252598989
aa(lp2357
F15.8446367235
aF1.3456816293117284
aa(lp2358
F20.0302877799
aF0.9104216477040433
aa(lp2359
F11.2873004896
aF1.961982310882888
aa(lp2360
F6.99275251837
aF3.006210664152167
aa(lp2361
F18.2193137835
aF0.31608539954997505
aa(lp2362
F6.45641102169
aF2.4057151113156032
aa(lp2363
F15.6093242099
aF1.8623267073639254
aa(lp2364
F19.732813155
aF0.6457232569931394
aa(lp2365
F10.4215687735
aF0.48715822158890654
aa(lp2366
F4.44157028043
aF5.094132270698275
aa(lp2367
F31.2224288985
aF0.36092300115285714
aa(lp2368
F21.9117114703
aF0.40084914523785153
aa(lp2369
F4.90747135861
aF3.3574325107419036
aa(lp2370
F11.6301805663
aF3.243542940867712
aa(lp2371
F7.06285486237
aF2.959624626799915
aa(lp2372
F7.2774068023
aF1.7157408007716617
aa(lp2373
F5.72803533091
aF5.004380218325711
aa(lp2374
F9.10855387497
aF0.612906754347256
aa(lp2375
F6.2348891695
aF3.3695162925544726
aa(lp2376
F16.1639140858
aF0.8528857447597673
aa(lp2377
F8.08097846219
aF1.899021262042664
aa(lp2378
F24.3312038575
aF0.337131235081636
aa(lp2379
F6.71923242875
aF2.9570538248700373
aa(lp2380
F8.62229250912
aF1.7485237607750406
aa(lp2381
F4.22547873975
aF4.5395665750985
aa(lp2382
F5.5869576491
aF4.563414126256956
aa(lp2383
F12.1036108374
aF1.1943079271172328
aa(lp2384
F31.6931109169
aF0.4423498451053712
aa(lp2385
F11.864534527
aF1.955618921466853
aa(lp2386
F19.9306346068
aF0.849068751988868
aa(lp2387
F16.9905387864
aF0.8913124177789984
aa(lp2388
F12.9143857449
aF0.8348637637567151
aa(lp2389
F13.043852462
aF1.2369932053640194
aa(lp2390
F5.00635936329
aF2.8346068903507504
aa(lp2391
F5.81438617953
aF4.114174841102675
aa(lp2392
F9.47933617765
aF0.5741921456247202
aa(lp2393
F5.3417163575
aF4.174583287052835
aa(lp2394
F25.5755048355
aF0.25641669949432766
aa(lp2395
F21.8026979804
aF0.4299755767041802
aa(lp2396
F4.93200871541
aF2.9421302453053118
aa(lp2397
F18.0384780411
aF0.42632067166697096
aa(lp2398
F10.1143208955
aF0.5143991739432853
aa(lp2399
F6.26606361535
aF3.6732704725903154
aa(lp2400
F22.9176908339
aF0.3140502994506155
aa(lp2401
F34.4975235989
aF0.20930266660135807
aa(lp2402
F22.0212700276
aF0.41502022604345146
aa(lp2403
F6.2038698204
aF3.975740015231786
aa(lp2404
F4.83458932029
aF4.298530237497028
aa(lp2405
F13.8483687401
aF0.8279001519823511
aa(lp2406
F34.1551185356
aF0.2753287965596062
aa(lp2407
F8.36809075365
aF2.464484543308747
aa(lp2408
F34.3258941283
aF0.19683046065584336
aa(lp2409
F26.221318382
aF0.34372526410597515
aa(lp2410
F27.7000914667
aF0.41453435651200526
aa(lp2411
F6.95796270485
aF3.1104012814345445
aa(lp2412
F21.0546393417
aF0.28235899799761316
aa(lp2413
F4.95666875898
aF2.886386598754331
aa(lp2414
F19.2468071556
aF0.6419875516260155
aa(lp2415
F29.7033934361
aF0.2600182322411102
aa(lp2416
F9.57436652283
aF0.5646463377280926
aa(lp2417
F26.3524249739
aF0.3220569603447239
aa(lp2418
F6.02096781407
aF2.659932590001505
aa(lp2419
F16.8218992464
aF0.6294995996718499
aa(lp2420
F14.924147935
aF0.7386972626622443
aa(lp2421
F14.6293590268
aF0.6779569537118564
aa(lp2422
F34.6700112169
aF0.2085758344019027
aa(lp2423
F6.39232793415
aF3.148833819952342
aa(lp2424
F4.55372549587
aF3.8592997443247565
aa(lp2425
F11.0093018225
aF0.8092321995651219
aa(lp2426
F5.96120671674
aF2.3613570165107953
aa(lp2427
F11.1752684237
aF1.58774674177989
aa(lp2428
F11.8055069921
aF2.7451268171970464
aa(lp2429
F5.75667550757
aF4.166194221369925
aa(lp2430
F33.4804702979
aF0.4195894185509746
aa(lp2431
F8.28503329487
aF2.375866897119995
aa(lp2432
F14.8498984428
aF0.8167136032767033
aa(lp2433
F23.263177888
aF0.24999687064516796
aa(lp2434
F8.40993120741
aF2.554627351149907
aa(lp2435
F6.55374222489
aF2.2700781994717367
aa(lp2436
F30.758737092
aF0.41119616425776057
aa(lp2437
F13.7109167992
aF0.7116439508355494
aa(lp2438
F6.52113654218
aF2.3089938521505493
aa(lp2439
F13.2404901683
aF1.060677263232482
aa(lp2440
F12.7225910938
aF1.2156594583698204
aa(lp2441
F4.31062425173
aF6.956109614161579
aa(lp2442
F19.3430411913
aF0.6713857194812209
aa(lp2443
F8.16199027128
aF2.144555696250245
aa(lp2444
F15.7658076851
aF1.4505462971922953
aa(lp2445
F7.72626132991
aF1.1887254994294287
aa(lp2446
F12.8501350695
aF0.7569071944880643
aa(lp2447
F10.318129525
aF0.49581347945765153
aa(lp2448
F5.03139116011
aF2.353942286914232
aa(lp2449
F6.11173465649
aF2.12719338986168
aa(lp2450
F12.4712883893
aF1.3071301934181319
aa(lp2451
F15.454393911
aF1.6748990712160738
aa(lp2452
F5.31514065423
aF3.3933801604897655
aa(lp2453
F13.6427032828
aF0.6107168515243107
aa(lp2454
F13.9871986367
aF0.7349926806356402
aa(lp2455
F17.506669038
aF1.075857879390409
aa(lp2456
F4.59937659397
aF3.3222673765682513
aa(lp2457
F14.4841553692
aF0.9700301913765945
aa(lp2458
F20.4339081063
aF0.6488645844669481
aa(lp2459
F23.4963912463
aF0.2256386560496964
aa(lp2460
F26.7496910745
aF0.23198916175935902
aa(lp2461
F33.8161120127
aF0.4049526013831442
aa(lp2462
F11.4574579554
aF2.6369709042191745
aa(lp2463
F33.148159994
aF0.41860387664422033
aa(lp2464
F21.1599125385
aF0.2761514747639906
aa(lp2465
F11.343736992
aF2.2003992102352035
aa(lp2466
F11.2311447658
aF1.7555332506023915
aa(lp2467
F8.79603601972
aF0.9297049156159868
aa(lp2468
F8.97328054903
aF0.6292510688509089
aa(lp2469
F7.20517492369
aF2.5856550166200716
aa(lp2470
F31.5354337482
aF0.34808932117014363
aa(lp2471
F5.84345811043
aF2.9768331927265272
aa(lp2472
F7.84273568524
aF1.2547069620984084
aa(lp2473
F23.7319425685
aF0.3589522925955917
aa(lp2474
F12.0433938681
aF1.5217708816849833
aa(lp2475
F10.3697201726
aF0.49142787217629824
aa(lp2476
F9.19986712756
aF0.6027180774219651
aa(lp2477
F5.08183085649
aF3.7582967774182285
aa(lp2478
F6.92334597497
aF3.205998038651405
aa(lp2479
F11.5147452452
aF2.9311285010674313
aa(lp2480
F6.78659273385
aF2.888808561538371
aa(lp2481
F5.26238524217
aF3.4157014481764625
aa(lp2482
F28.2582621771
aF0.4218100259795496
aa(lp2483
F16.4075871111
aF0.6102123870882732
aa(lp2484
F12.5963130554
aF1.3645906515914261
aa(lp2485
F8.49424076777
aF2.81017142281151
aa(lp2486
F10.7381500768
aF0.7421115846836474
aa(lp2487
F22.1313763777
aF0.3365953943290418
aa(lp2488
F13.1090717243
aF1.2155680519504881
aa(lp2489
F28.399553488
aF0.30741174979272906
aa(lp2490
F4.64548534432
aF3.6219518955127645
aa(lp2491
F25.0703252313
aF0.2597496172105812
aa(lp2492
F7.46117044358
aF1.376461867500823
aa(lp2493
F14.4120948947
aF0.85332442885715
aa(lp2494
F18.3104103524
aF0.37273287103241337
aa(lp2495
F5.53150431831
aF4.875159694220744
aa(lp2496
F20.3322468719
aF0.7618853289280612
aa(lp2497
F25.7033823597
aF0.2593533144810797
aa(lp2498
F4.57649412335
aF3.853307747580217
aa(lp2499
F16.0034792067
aF0.9523700491766197
aa(lp2500
F18.7727711591
aF0.6184963294639598
aa(lp2501
F6.88890146764
aF3.4791203660261028
aa(lp2502
F14.2690476916
aF0.8208146315336403
aa(lp2503
F6.14229332977
aF2.9171468561904286
aa(lp2504
F24.8214897961
aF0.204904502902943
aa(lp2505
F9.2458664632
aF0.5987468559081817
aa(lp2506
F11.0643483316
aF1.115491142400214
aa(lp2507
F4.85876226689
aF4.349734851903767
aa(lp2508
F25.1956768574
aF0.3057098892999797
aa(lp2509
F20.1304392188
aF0.8788985120932573
aa(lp2510
F10.2667955473
aF0.5001856491857306
aa(lp2511
F5.10724001077
aF3.4376410529994184
aa(lp2512
F4.48609702249
aF4.479230727708031
aa(lp2513
F27.9777848836
aF0.4605749754704189
aa(lp2514
F18.5864420773
aF0.4024323821190361
aa(lp2515
F6.4886930768
aF2.3779768239154113
aa(lp2516
F6.3288809031
aF3.570700550572526
aa(lp2517
F7.09816913668
aF2.1541533607152203
aa(lp2518
F12.2249495361
aF1.1166451073137662
aa(lp2519
F24.4528598768
aF0.34734806199565493
aa(lp2520
F8.53671197161
aF2.9352567444130067
aa(lp2521
F11.9834764857
aF1.8506311990125845
aa(lp2522
F9.96411068144
aF0.527792051305651
aa(lp2523
F4.76278967065
aF3.4832587357822797
aa(lp2524
F14.0571346299
aF0.799590772691465
aa(lp2525
F8.66540397167
aF1.8505731574020026
aa(lp2526
F11.400455677
aF2.7282080540282534
aa(lp2527
F12.2860742838
aF1.5330321036603822
aa(lp2528
F20.5360776468
aF0.5046803794506333
aa(lp2529
F22.5773346913
aF0.24708327976693278
aa(lp2530
F4.20445645746
aF4.649924999697213
aa(lp2531
F13.5072926737
aF0.9675087911116036
aa(lp2532
F10.4736766174
aF0.48281885083342047
aa(lp2533
F7.38711461952
aF2.0132953778098734
aa(lp2534
F8.00077073557
aF1.9262619994422372
aa(lp2535
F5.61489243735
aF4.99649072115301
aa(lp2536
F11.5723189714
aF3.121187002600923
aa(lp2537
F7.96096590604
aF1.5977810872203155
aa(lp2538
F25.9610587679
aF0.3606615119093649
aa(lp2539
F21.2657121011
aF0.3451433875738585
aa(lp2540
F25.3216552417
aF0.22346101943406765
aa(lp2541
F14.3403929301
aF0.6359638030825225
aa(lp2542
F15.3775063791
aF1.4208112772047232
aa(lp2543
F6.65254070815
aF1.9705479528486993
aa(lp2544
F12.4092421784
aF1.3303193431779345
aa(lp2545
F18.4939722162
aF0.3737541704829538
aa(lp2546
F23.6138732025
aF0.2870856543607957
aa(lp2547
F5.13277621083
aF3.434627041411907
aa(lp2548
F4.6920563349
aF3.030055324803077
aa(lp2549
F19.0557730309
aF0.6294078467706755
aa(lp2550
F32.1708885256
aF0.4262962971103499
aa(lp2551
F9.76729480144
aF0.5460372677464023
aa(lp2552
F4.88305607822
aF4.382326346757578
aa(lp2553
F5.50398439633
aF4.087960955468121
aa(lp2554
F20.9498898923
aF0.2297179883037193
aa(lp2555
F31.0670934313
aF0.5085694131609363
aa(lp2556
F6.82052569752
aF3.821047734540934
aa(lp2557
F22.3532434259
aF0.2533594225247504
aa(lp2558
F20.7419518252
aF0.3586302449330948
aa(lp2559
F5.64296689953
aF5.729549380128686
aa(lp2560
F29.1166778018
aF0.21371505810457694
aa(lp2561
F9.06323768653
aF0.6178392030876062
aa(lp2562
F5.4222433993
aF4.02199467218445
aa(lp2563
F17.6821733951
aF0.8992651135541142
aa(lp2564
F10.5260450004
aF0.49250971388452547
aa(lp2565
F19.5369551793
aF0.45545074710129324
aa(lp2566
F29.5556153593
aF0.2356134678680919
aa(lp2567
F27.838591924
aF0.39782301116819646
aa(lp2568
F14.556576146
aF0.936517371735217
aa(lp2569
F10.6847264446
aF0.637396254096799
aa(lp2570
F9.43217530115
aF0.5796490365634347
aa(lp2571
F6.17300479642
aF3.575533165933798
aa(lp2572
F30.6057085492
aF0.4547967394688551
aa(lp2573
F32.0108343538
aF0.4681168247408626
aa(lp2574
F14.1274203031
aF0.9070322847374053
aa(lp2575
F8.84001619982
aF0.9927352534762642
aa(lp2576
F15.9238599072
aF1.1919063167020822
aa(lp2577
F16.3259573245
aF0.5790821604113118
aa(lp2578
F12.7862040493
aF0.8365217748942384
aa(lp2579
F10.9000290315
aF0.840943442973853
aa(lp2580
F16.4896250466
aF0.4449218388611576
aa(lp2581
F7.92135911049
aF1.4519787115715115
aa(lp2582
F31.8515764715
aF0.41635472977491655
aa(lp2583
F8.1213833545
aF2.1350387665488317
aa(lp2584
F18.6793742877
aF0.45666925393188745
aa(lp2585
F7.76489263656
aF1.1823818860502757
aatp2586
Rp2587
aatp2588
Rp2589
.