ccollections
OrderedDict
p0
((lp1
(lp2
S'down2'
p3
ag0
((lp4
tp5
Rp6
aa(lp7
S'down1'
p8
ag0
((lp9
tp10
Rp11
aa(lp12
S'central'
p13
ag0
((lp14
tp15
Rp16
aa(lp17
S'up1'
p18
ag0
((lp19
tp20
Rp21
aa(lp22
S'up2'
p23
ag0
((lp24
tp25
Rp26
aa(lp27
S'obs'
p28
ag0
((lp29
tp30
Rp31
aatp32
Rp33
.