ccollections
OrderedDict
p0
((lp1
(lp2
S'down2'
p3
ag0
((lp4
(lp5
F6.6194434907
aF3.298095703125
aa(lp6
F4.62237347694
aF5.600341796875
aa(lp7
F17.7705842621
aF0.692138671875
aa(lp8
F23.9698552928
aF0.4200439453125
aa(lp9
F34.843361273
aF0.4523162841796875
aa(lp10
F5.78545888511
aF4.021728515625
aa(lp11
F12.3475046552
aF1.2744140625
aa(lp12
F27.0178567275
aF0.35858154296875
aa(lp13
F13.4400922127
aF1.12115478515625
aa(lp14
F28.8276803068
aF0.3451080322265625
aa(lp15
F24.2101530921
aF0.41436767578125
aa(lp16
F15.1491313306
aF0.9002685546875
aa(lp17
F13.3732260823
aF1.117584228515625
aa(lp18
F33.313900794
aF0.3594970703125
aa(lp19
F13.5748291371
aF1.10687255859375
aa(lp20
F7.16932828228
aF2.9501953125
aa(lp21
F13.7794713832
aF1.067596435546875
aa(lp22
F8.04077458925
aF2.53387451171875
aa(lp23
F26.8834395298
aF0.3643035888671875
aa(lp24
F4.33217737299
aF6.096923828125
aa(lp25
F7.42405019262
aF2.797119140625
aa(lp26
F30.4534413425
aF0.3451080322265625
aa(lp27
F22.2420332596
aF0.463531494140625
aa(lp28
F29.8519104033
aF0.3489532470703125
aa(lp29
F8.57939553147
aF1.65655517578125
aa(lp30
F8.75227464648
aF1.26318359375
aa(lp31
F17.8594371834
aF0.684814453125
aa(lp32
F10.1648924999
aF0.53192138671875
aa(lp33
F7.24120079831
aF2.89453125
aa(lp34
F14.7025058219
aF0.95428466796875
aa(lp35
F14.776018351
aF0.9434814453125
aa(lp36
F7.02771628096
aF3.047607421875
aa(lp37
F15.2248769873
aF0.89666748046875
aa(lp38
F8.92863736222
aF0.74658203125
aa(lp39
F24.0897045692
aF0.416259765625
aa(lp40
F20.6387580351
aF0.5286865234375
aa(lp41
F8.24381422375
aF2.2752685546875
aa(lp42
F9.71870129496
aF0.560546875
aa(lp43
F6.29739393343
aF3.53466796875
aa(lp44
F16.7382082054
aF0.773529052734375
aa(lp45
F9.62223835545
aF0.56805419921875
aa(lp46
F23.1474406845
aF0.4410552978515625
aa(lp47
F5.99101275032
aF3.854736328125
aa(lp48
F30.0011699553
aF0.347991943359375
aa(lp49
F22.6902213647
aF0.450439453125
aa(lp50
F10.5786752254
aF0.75067138671875
aa(lp51
F21.5862953693
aF0.48773193359375
aa(lp52
F9.67034954722
aF0.56304931640625
aa(lp53
F19.8314772207
aF0.5631256103515625
aa(lp54
F17.1608689377
aF0.7408447265625
aa(lp55
F7.80371709974
aF2.5953369140625
aa(lp56
F10.7918408272
aF1.0546875
aa(lp57
F26.4841870988
aF0.37097930908203125
aa(lp58
F7.35036280549
aF2.852783203125
aa(lp59
F7.88194936367
aF2.5953369140625
aa(lp60
F9.01814695177
aF0.615509033203125
aa(lp61
F31.3785410429
aF0.344146728515625
aa(lp62
F18.96096819
aF0.6060791015625
aa(lp63
F15.073762518
aF0.91107177734375
aa(lp64
F4.28917835993
aF6.096923828125
aa(lp65
F21.478900865
aF0.493316650390625
aa(lp66
F7.61151676327
aF2.657958984375
aa(lp67
F9.91453799148
aF0.549652099609375
aa(lp68
F15.687370831
aF0.8570556640625
aa(lp69
F4.98145210278
aF4.993408203125
aa(lp70
F5.05654811591
aF4.8140869140625
aa(lp71
F8.45198086345
aF1.90374755859375
aa(lp72
F5.93154897188
aF3.8760986328125
aa(lp73
F23.0322792881
aF0.44293212890625
aa(lp74
F30.151175805
aF0.3451080322265625
aa(lp75
F28.1176738081
aF0.3508758544921875
aa(lp76
F12.1641288916
aF1.309814453125
aa(lp77
F4.78660361901
aF5.324462890625
aa(lp78
F16.2447336562
aF0.809844970703125
aa(lp79
F24.5751241762
aF0.40679931640625
aa(lp80
F17.0754914803
aF0.750732421875
aa(lp81
F23.3794937774
aF0.4335479736328125
aa(lp82
F6.36052530761
aF3.492919921875
aa(lp83
F4.37560745116
aF6.041748046875
aa(lp84
F4.39748548841
aF6.01416015625
aa(lp85
F8.88421628081
aF0.8892822265625
aa(lp86
F17.5942023832
aF0.7049560546875
aa(lp87
F28.6842590117
aF0.3460693359375
aa(lp88
F7.68782221882
aF2.6370849609375
aa(lp89
F9.15409664434
aF0.6031494140625
aa(lp90
F5.67118173403
aF4.0692138671875
aa(lp91
F10.8458000313
aF1.1043701171875
aa(lp92
F4.18353876364
aF6.0703125
aa(lp93
F8.20280022263
aF2.3309326171875
aa(lp94
F15.5316658805
aF0.86785888671875
aa(lp95
F5.47660138938
aF4.220947265625
aa(lp96
F21.6942268461
aF0.482147216796875
aa(lp97
F10.9545291766
aF1.18560791015625
aa(lp98
F22.8036724716
aF0.4485626220703125
aa(lp99
F4.26783916411
aF6.12451171875
aa(lp100
F4.73909419965
aF5.379638671875
aa(lp101
F14.9987686747
aF0.9146728515625
aa(lp102
F6.58651093602
aF3.298095703125
aa(lp103
F32.9832437751
aF0.350982666015625
aa(lp104
F6.85462832601
aF3.186767578125
aa(lp105
F17.2466732824
aF0.736083984375
aa(lp106
F13.9176105838
aF1.0426025390625
aa(lp107
F6.75282859089
aF3.20068359375
aa(lp108
F5.36842493929
aF4.386474609375
aa(lp109
F27.2887107412
aF0.3566741943359375
aa(lp110
F5.15844009188
aF4.68994140625
aa(lp111
F5.39526706398
aF4.35888671875
aa(lp112
F21.3720406616
aF0.4989013671875
aa(lp113
F19.6346399552
aF0.572357177734375
aa(lp114
F19.1510518961
aF0.5950927734375
aa(lp115
F27.5622800663
aF0.3547210693359375
aa(lp116
F32.3317429682
aF0.34999847412109375
aa(lp117
F20.2310914149
aF0.542816162109375
aa(lp118
F4.53107014514
aF5.655517578125
aa(lp119
F8.70873099153
aF1.358642578125
aa(lp120
F27.1529460111
aF0.35572052001953125
aa(lp121
F10.064000891
aF0.539520263671875
aa(lp122
F12.6592946207
aF1.2213134765625
aa(lp123
F5.23620422107
aF4.57958984375
aa(lp124
F15.3010013722
aF0.89306640625
aa(lp125
F4.46377813183
aF5.8486328125
aa(lp126
F13.1746170829
aF1.14971923828125
aa(lp127
F12.5336448313
aF1.24609375
aa(lp128
F32.6558686915
aF0.34814453125
aa(lp129
F24.9455972451
aF0.39923095703125
aa(lp130
F7.13365998236
aF2.97802734375
aa(lp131
F24.6979997971
aF0.4049072265625
aa(lp132
F26.0908640617
aF0.37274169921875
aa(lp133
F9.81613127544
aF0.5572509765625
aa(lp134
F27.4251542949
aF0.35381317138671875
aa(lp135
F5.4493546163
aF4.300048828125
aa(lp136
F33.6478726494
aF0.373687744140625
aa(lp137
F25.8318992715
aF0.37841796875
aa(lp138
F9.86521193182
aF0.554718017578125
aa(lp139
F19.4397563973
aF0.5815887451171875
aa(lp140
F4.14201506264
aF6.015625
aa(lp141
F20.8456615844
aF0.521240234375
aa(lp142
F18.8666350149
aF0.611572265625
aa(lp143
F32.4934016831
aF0.34809112548828125
aa(lp144
F25.4482635179
aF0.3871917724609375
aa(lp145
F16.6549335377
aF0.77716064453125
aa(lp146
F7.31379383631
aF2.86669921875
aa(lp147
F6.08132801641
aF3.78515625
aa(lp148
F6.68580341169
aF3.242431640625
aa(lp149
F17.3329066488
aF0.72509765625
aa(lp150
F6.42428957382
aF3.409423828125
aa(lp151
F10.0139312348
aF0.54205322265625
aa(lp152
F9.38524905587
aF0.58807373046875
aa(lp153
F5.6995376427
aF4.119140625
aa(lp154
F5.5591618399
aF4.1243896484375
aa(lp155
F4.71551661657
aF5.4486083984375
aa(lp156
F17.9487343693
aF0.677490234375
aa(lp157
F14.1980574046
aF0.999755859375
aa(lp158
F18.1286704313
aF0.6646728515625
aa(lp159
F17.4195711821
aF0.715423583984375
aa(lp160
F11.7467731264
aF1.43536376953125
aa(lp161
F4.8105366371
aF5.24169921875
aa(lp162
F11.6883314691
aF1.437255859375
aa(lp163
F32.819148035
aF0.349090576171875
aa(lp164
F30.3019316841
aF0.344146728515625
aa(lp165
F7.53596867728
aF2.7205810546875
aa(lp166
F18.4019624042
aF0.64453125
aa(lp167
F16.5720731719
aF0.784423828125
aa(lp168
F7.57364852066
aF2.671875
aa(lp169
F10.2157169624
aF0.533203125
aa(lp170
F16.9060087427
aF0.765380859375
aa(lp171
F23.8506022814
aF0.42041015625
aa(lp172
F28.9718187083
aF0.3451080322265625
aa(lp173
F33.9851925727
aF0.38787841796875
aa(lp174
F30.9125307774
aF0.344146728515625
aa(lp175
F4.50852750761
aF5.710693359375
aa(lp176
F5.87267540098
aF3.9521484375
aa(lp177
F22.4650096431
aF0.456085205078125
aa(lp178
F9.33855627449
aF0.59307861328125
aa(lp179
F5.90203877799
aF3.966064453125
aa(lp180
F11.1196700733
aF1.296630859375
aa(lp181
F4.24660613344
aF6.152099609375
aa(lp182
F11.9238571997
aF1.380615234375
aa(lp183
F9.29209579552
aF0.5955810546875
aa(lp184
F7.64957434708
aF2.64404296875
aa(lp185
F5.2101534538
aF4.57958984375
aa(lp186
F4.66871277104
aF5.46240234375
aa(lp187
F7.4984762958
aF2.7275390625
aa(lp188
F6.05107265314
aF3.826904296875
aa(lp189
F13.3066926192
aF1.13543701171875
aa(lp190
F5.18423229234
aF4.6485595703125
aa(lp191
F9.52673285854
aF0.5755615234375
aa(lp192
F29.4085724968
aF0.3470306396484375
aa(lp193
F12.9789576736
aF1.181854248046875
aa(lp194
F28.5415512554
aF0.3470306396484375
aa(lp195
F29.2622611908
aF0.344146728515625
aa(lp196
F4.41947291585
aF5.986572265625
aa(lp197
F5.28869716839
aF4.5244140625
aa(lp198
F4.35383825986
aF6.041748046875
aa(lp199
F8.32645846134
aF2.091796875
aa(lp200
F26.6166080343
aF0.370025634765625
aa(lp201
F10.6315686016
aF0.81787109375
aa(lp202
F16.0834966027
aF0.82073974609375
aa(lp203
F15.8446367235
aF0.8426513671875
aa(lp204
F20.0302877799
aF0.5520477294921875
aa(lp205
F11.2873004896
aF1.38275146484375
aa(lp206
F6.99275251837
aF3.075439453125
aa(lp207
F18.2193137835
aF0.655517578125
aa(lp208
F6.45641102169
aF3.381591796875
aa(lp209
F15.6093242099
aF0.8570556640625
aa(lp210
F19.732813155
aF0.56866455078125
aa(lp211
F10.4215687735
aF0.517822265625
aa(lp212
F4.080501
aF5.693359375
aa(lp213
F4.44157028043
aF5.8486328125
aa(lp214
F31.2224288985
aF0.3470306396484375
aa(lp215
F21.9117114703
aF0.474700927734375
aa(lp216
F4.90747135861
aF5.13134765625
aa(lp217
F11.6301805663
aF1.46392822265625
aa(lp218
F7.06285486237
aF3.03369140625
aa(lp219
F7.2774068023
aF2.89453125
aa(lp220
F5.72803533091
aF4.09130859375
aa(lp221
F9.10855387497
aF0.605621337890625
aa(lp222
F6.2348891695
aF3.576416015625
aa(lp223
F16.1639140858
aF0.817108154296875
aa(lp224
F8.08097846219
aF2.5128173828125
aa(lp225
F24.3312038575
aF0.4072723388671875
aa(lp226
F6.71923242875
aF3.20068359375
aa(lp227
F8.62229250912
aF1.5556640625
aa(lp228
F4.22547873975
aF6.207275390625
aa(lp229
F5.5869576491
aF4.188720703125
aa(lp230
F12.1036108374
aF1.338134765625
aa(lp231
F31.6931109169
aF0.3460693359375
aa(lp232
F11.864534527
aF1.40185546875
aa(lp233
F19.9306346068
aF0.557586669921875
aa(lp234
F16.9905387864
aF0.75537109375
aa(lp235
F12.9143857449
aF1.1788330078125
aa(lp236
F13.043852462
aF1.1646728515625
aa(lp237
F5.00635936329
aF4.938232421875
aa(lp238
F5.81438617953
aF3.966064453125
aa(lp239
F9.47933617765
aF0.58056640625
aa(lp240
F5.3417163575
aF4.4278564453125
aa(lp241
F25.5755048355
aF0.3822021484375
aa(lp242
F21.8026979804
aF0.478424072265625
aa(lp243
F4.93200871541
aF5.076171875
aa(lp244
F18.0384780411
aF0.6719970703125
aa(lp245
F10.1143208955
aF0.5408935546875
aa(lp246
F6.26606361535
aF3.53466796875
aa(lp247
F4.0602
aF5.5218505859375
aa(lp248
F22.9176908339
aF0.4448089599609375
aa(lp249
F34.4975235989
aF0.4147796630859375
aa(lp250
F22.0212700276
aF0.47283935546875
aa(lp251
F6.2038698204
aF3.632080078125
aa(lp252
F4.83458932029
aF5.24169921875
aa(lp253
F13.8483687401
aF1.046173095703125
aa(lp254
F34.1551185356
aF0.3922576904296875
aa(lp255
F8.36809075365
aF2.037109375
aa(lp256
F4.04
aF5.3525390625
aa(lp257
F34.3258941283
aF0.4035186767578125
aa(lp258
F26.221318382
aF0.37384033203125
aa(lp259
F27.7000914667
aF0.3566436767578125
aa(lp260
F6.95796270485
aF3.08935546875
aa(lp261
F21.0546393417
aF0.51007080078125
aa(lp262
F4.95666875898
aF5.048583984375
aa(lp263
F4.100903505
aF5.77392578125
aa(lp264
F19.2468071556
aF0.5877685546875
aa(lp265
F29.7033934361
aF0.3470306396484375
aa(lp266
F9.57436652283
aF0.570556640625
aa(lp267
F26.3524249739
aF0.37288665771484375
aa(lp268
F6.02096781407
aF3.81298828125
aa(lp269
F16.8218992464
aF0.766265869140625
aa(lp270
F14.924147935
aF0.92547607421875
aa(lp271
F14.6293590268
aF0.96148681640625
aa(lp272
F34.6700112169
aF0.4335479736328125
aa(lp273
F6.39232793415
aF3.42333984375
aa(lp274
F4.55372549587
aF5.655517578125
aa(lp275
F11.0093018225
aF1.23046875
aa(lp276
F5.96120671674
aF3.882568359375
aa(lp277
F11.1752684237
aF1.3289794921875
aa(lp278
F11.8055069921
aF1.408935546875
aa(lp279
F5.75667550757
aF4.077392578125
aa(lp280
F33.4804702979
aF0.368011474609375
aa(lp281
F8.28503329487
aF2.212646484375
aa(lp282
F14.8498984428
aF0.936279296875
aa(lp283
F23.263177888
aF0.4373016357421875
aa(lp284
F8.40993120741
aF1.982421875
aa(lp285
F6.55374222489
aF3.325927734375
aa(lp286
F30.758737092
aF0.3412628173828125
aa(lp287
F13.7109167992
aF1.074737548828125
aa(lp288
F6.52113654218
aF3.325927734375
aa(lp289
F13.2404901683
aF1.139892578125
aa(lp290
F12.7225910938
aF1.22113037109375
aa(lp291
F4.31062425173
aF6.096923828125
aa(lp292
F19.3430411913
aF0.582275390625
aa(lp293
F8.16199027128
aF2.379638671875
aa(lp294
F15.7658076851
aF0.84625244140625
aa(lp295
F7.72626132991
aF2.630126953125
aa(lp296
F12.8501350695
aF1.196533203125
aa(lp297
F10.318129525
aF0.5255126953125
aa(lp298
F5.03139116011
aF4.8692626953125
aa(lp299
F6.11173465649
aF3.771240234375
aa(lp300
F12.4712883893
aF1.24609375
aa(lp301
F15.454393911
aF0.87506103515625
aa(lp302
F5.31514065423
aF4.5087890625
aa(lp303
F13.6427032828
aF1.09259033203125
aa(lp304
F13.9871986367
aF1.031890869140625
aa(lp305
F17.506669038
aF0.714111328125
aa(lp306
F4.59937659397
aF5.655517578125
aa(lp307
F14.4841553692
aF0.974761962890625
aa(lp308
F20.4339081063
aF0.534271240234375
aa(lp309
F23.4963912463
aF0.43328857421875
aa(lp310
F26.7496910745
aF0.36716461181640625
aa(lp311
F33.8161120127
aF0.3772430419921875
aa(lp312
F11.4574579554
aF1.437255859375
aa(lp313
F33.148159994
aF0.355712890625
aa(lp314
F21.1599125385
aF0.508209228515625
aa(lp315
F11.343736992
aF1.39678955078125
aa(lp316
F11.2311447658
aF1.35333251953125
aa(lp317
F8.79603601972
aF1.123046875
aa(lp318
F8.97328054903
aF0.61798095703125
aa(lp319
F7.20517492369
aF2.936279296875
aa(lp320
F31.5354337482
aF0.34332275390625
aa(lp321
F5.84345811043
aF3.97998046875
aa(lp322
F7.84273568524
aF2.6162109375
aa(lp323
F23.7319425685
aF0.424163818359375
aa(lp324
F12.0433938681
aF1.34521484375
aa(lp325
F10.3697201726
aF0.52294921875
aa(lp326
F9.19986712756
aF0.59820556640625
aa(lp327
F5.08183085649
aF4.772705078125
aa(lp328
F6.92334597497
aF3.158935546875
aa(lp329
F11.5147452452
aF1.437255859375
aa(lp330
F4.12140802252
aF5.880615234375
aa(lp331
F4.16272513795
aF6.04296875
aa(lp332
F6.78659273385
aF3.186767578125
aa(lp333
F5.26238524217
aF4.5382080078125
aa(lp334
F28.2582621771
aF0.3489532470703125
aa(lp335
F16.4075871111
aF0.7989501953125
aa(lp336
F12.5963130554
aF1.23193359375
aa(lp337
F8.49424076777
aF1.8427734375
aa(lp338
F10.7381500768
aF0.9833984375
aa(lp339
F22.1313763777
aF0.467254638671875
aa(lp340
F13.1090717243
aF1.16400146484375
aa(lp341
F28.399553488
aF0.347137451171875
aa(lp342
F4.64548534432
aF5.517578125
aa(lp343
F25.0703252313
aF0.39544677734375
aa(lp344
F7.46117044358
aF2.75537109375
aa(lp345
F14.4120948947
aF0.981903076171875
aa(lp346
F18.3104103524
aF0.6500244140625
aa(lp347
F5.53150431831
aF4.1519775390625
aa(lp348
F20.3322468719
aF0.53985595703125
aa(lp349
F25.7033823597
aF0.38031005859375
aa(lp350
F4.57649412335
aF5.6279296875
aa(lp351
F16.0034792067
aF0.82464599609375
aa(lp352
F18.7727711591
aF0.6170654296875
aa(lp353
F6.88890146764
aF3.1728515625
aa(lp354
F14.2690476916
aF1.00830078125
aa(lp355
F6.14229332977
aF3.70166015625
aa(lp356
F24.8214897961
aF0.40301513671875
aa(lp357
F9.2458664632
aF0.6005859375
aa(lp358
F11.0643483316
aF1.2578125
aa(lp359
F4.85876226689
aF5.158935546875
aa(lp360
F25.1956768574
aF0.39166259765625
aa(lp361
F20.1304392188
aF0.551025390625
aa(lp362
F10.2667955473
aF0.5306396484375
aa(lp363
F5.10724001077
aF4.80029296875
aa(lp364
F4.48609702249
aF5.765869140625
aa(lp365
F27.9777848836
aF0.351837158203125
aa(lp366
F18.5864420773
aF0.633544921875
aa(lp367
F6.4886930768
aF3.353759765625
aa(lp368
F6.3288809031
aF3.492919921875
aa(lp369
F7.09816913668
aF3.019775390625
aa(lp370
F12.2249495361
aF1.295654296875
aa(lp371
F24.4528598768
aF0.40869140625
aa(lp372
F8.53671197161
aF1.7388916015625
aa(lp373
F11.9834764857
aF1.359375
aa(lp374
F9.96411068144
aF0.547119140625
aa(lp375
F4.76278967065
aF5.3106689453125
aa(lp376
F14.0571346299
aF1.024749755859375
aa(lp377
F8.66540397167
aF1.436279296875
aa(lp378
F11.400455677
aF1.423095703125
aa(lp379
F12.2860742838
aF1.281494140625
aa(lp380
F20.5360776468
aF0.53240966796875
aa(lp381
F22.5773346913
aF0.452362060546875
aa(lp382
F4.20445645746
aF6.15234375
aa(lp383
F13.5072926737
aF1.110443115234375
aa(lp384
F10.4736766174
aF0.5152587890625
aa(lp385
F7.38711461952
aF2.797119140625
aa(lp386
F8.00077073557
aF2.554931640625
aa(lp387
F5.61489243735
aF4.14697265625
aa(lp388
F11.5723189714
aF1.45849609375
aa(lp389
F7.96096590604
aF2.5689697265625
aa(lp390
F25.9610587679
aF0.375579833984375
aa(lp391
F21.2657121011
aF0.50262451171875
aa(lp392
F25.3216552417
aF0.38787841796875
aa(lp393
F14.3403929301
aF0.989044189453125
aa(lp394
F15.3775063791
aF0.88226318359375
aa(lp395
F6.65254070815
aF3.270263671875
aa(lp396
F12.4092421784
aF1.26025390625
aa(lp397
F18.4939722162
aF0.63720703125
aa(lp398
F23.6138732025
aF0.42950439453125
aa(lp399
F5.13277621083
aF4.717529296875
aa(lp400
F4.6920563349
aF5.46240234375
aa(lp401
F19.0557730309
aF0.6055908203125
aa(lp402
F32.1708885256
aF0.34809112548828125
aa(lp403
F9.76729480144
aF0.5555419921875
aa(lp404
F4.88305607822
aF5.13134765625
aa(lp405
F5.50398439633
aF4.1795654296875
aa(lp406
F20.9498898923
aF0.515655517578125
aa(lp407
F31.0670934313
aF0.3460693359375
aa(lp408
F6.82052569752
aF3.2147216796875
aa(lp409
F22.3532434259
aF0.45794677734375
aa(lp410
F20.7419518252
aF0.52496337890625
aa(lp411
F5.64296689953
aF4.105224609375
aa(lp412
F29.1166778018
aF0.3431854248046875
aa(lp413
F9.06323768653
aF0.610565185546875
aa(lp414
F5.4222433993
aF4.341796875
aa(lp415
F17.6821733951
aF0.6976318359375
aa(lp416
F10.5260450004
aF0.65277099609375
aa(lp417
F19.5369551793
aF0.5778961181640625
aa(lp418
F29.5556153593
aF0.3451080322265625
aa(lp419
F27.838591924
aF0.353759765625
aa(lp420
F14.556576146
aF0.9722900390625
aa(lp421
F10.6847264446
aF0.917236328125
aa(lp422
F9.43217530115
aF0.5855712890625
aa(lp423
F6.17300479642
aF3.64599609375
aa(lp424
F30.6057085492
aF0.3431854248046875
aa(lp425
F32.0108343538
aF0.34618377685546875
aa(lp426
F14.1274203031
aF1.017608642578125
aa(lp427
F8.84001619982
aF1.02880859375
aa(lp428
F15.9238599072
aF0.838897705078125
aa(lp429
F16.3259573245
aF0.80621337890625
aa(lp430
F12.7862040493
aF1.2000732421875
aa(lp431
F10.9000290315
aF1.1480712890625
aa(lp432
F16.4896250466
aF0.795318603515625
aa(lp433
F7.92135911049
aF2.574462890625
aa(lp434
F31.8515764715
aF0.3452301025390625
aa(lp435
F8.1213833545
aF2.4566650390625
aa(lp436
F18.6793742877
aF0.626220703125
aa(lp437
F7.76489263656
aF2.6162109375
aatp438
Rp439
aa(lp440
S'down1'
p441
ag0
((lp442
(lp443
F6.6194434907
aF4.742368698120117
aa(lp444
F4.62237347694
aF8.091920852661133
aa(lp445
F17.7705842621
aF0.9709768295288086
aa(lp446
F23.9698552928
aF0.5807361602783203
aa(lp447
F34.843361273
aF0.6280829906463623
aa(lp448
F5.78545888511
aF5.782888412475586
aa(lp449
F12.3475046552
aF1.8151473999023438
aa(lp450
F27.0178567275
aF0.4965682029724121
aa(lp451
F13.4400922127
aF1.5894255638122559
aa(lp452
F28.8276803068
aF0.4730684757232666
aa(lp453
F24.2101530921
aF0.5728883743286133
aa(lp454
F15.1491313306
aF1.2786388397216797
aa(lp455
F13.3732260823
aF1.5843636989593506
aa(lp456
F33.313900794
aF0.5000162124633789
aa(lp457
F13.5748291371
aF1.5691781044006348
aa(lp458
F7.16932828228
aF4.242118835449219
aa(lp459
F13.7794713832
aF1.5134975910186768
aa(lp460
F8.04077458925
aF3.626091480255127
aa(lp461
F26.8834395298
aF0.5044921636581421
aa(lp462
F4.33217737299
aF8.749153137207031
aa(lp463
F7.42405019262
aF3.9947891235351562
aa(lp464
F30.4534413425
aF0.4730684757232666
aa(lp465
F22.2420332596
aF0.6504757404327393
aa(lp466
F29.8519104033
aF0.48115217685699463
aa(lp467
F8.57939553147
aF2.4245166778564453
aa(lp468
F8.75227464648
aF1.8833885192871094
aa(lp469
F17.8594371834
aF0.9576702117919922
aa(lp470
F10.1648924999
aF0.8870530128479004
aa(lp471
F7.24120079831
aF4.162078857421875
aa(lp472
F14.7025058219
aF1.3466382026672363
aa(lp473
F14.776018351
aF1.3313932418823242
aa(lp474
F7.02771628096
aF4.38218879699707
aa(lp475
F15.2248769873
aF1.265331745147705
aa(lp476
F8.92863736222
aF1.208688735961914
aa(lp477
F24.0897045692
aF0.5755043029785156
aa(lp478
F20.6387580351
aF0.7373714447021484
aa(lp479
F8.24381422375
aF3.271634101867676
aa(lp480
F9.71870129496
aF0.9415435791015625
aa(lp481
F6.29739393343
aF5.082538604736328
aa(lp482
F16.7382082054
aF1.093564510345459
aa(lp483
F9.62223835545
aF0.9541535377502441
aa(lp484
F23.1474406845
aF0.6124460697174072
aa(lp485
F5.99101275032
aF5.542768478393555
aa(lp486
F30.0011699553
aF0.4770216941833496
aa(lp487
F22.6902213647
aF0.6254768371582031
aa(lp488
F10.5786752254
aF1.1477899551391602
aa(lp489
F21.5862953693
aF0.6802511215209961
aa(lp490
F9.67034954722
aF0.945746898651123
aa(lp491
F19.8314772207
aF0.7889139652252197
aa(lp492
F17.1608689377
aF1.0473575592041016
aa(lp493
F7.80371709974
aF3.7318639755249023
aa(lp494
F10.7918408272
aF1.551513671875
aa(lp495
F26.4841870988
aF0.5106993913650513
aa(lp496
F7.35036280549
aF4.102048873901367
aa(lp497
F7.88194936367
aF3.7318639755249023
aa(lp498
F9.01814695177
aF1.041461706161499
aa(lp499
F31.3785410429
aF0.47175073623657227
aa(lp500
F18.96096819
aF0.8529300689697266
aa(lp501
F15.073762518
aF1.285658359527588
aa(lp502
F4.28917835993
aF8.809431076049805
aa(lp503
F21.478900865
aF0.6880402565002441
aa(lp504
F7.61151676327
aF3.821908950805664
aa(lp505
F9.91453799148
aF0.9166214466094971
aa(lp506
F15.687370831
aF1.217264175415039
aa(lp507
F4.98145210278
aF7.214963912963867
aa(lp508
F5.05654811591
aF6.955862998962402
aa(lp509
F8.45198086345
aF2.7780404090881348
aa(lp510
F5.93154897188
aF5.6005659103393555
aa(lp511
F23.0322792881
aF0.6150522232055664
aa(lp512
F30.151175805
aF0.4758502244949341
aa(lp513
F28.1176738081
aF0.4809749126434326
aa(lp514
F12.1641288916
aF1.8779182434082031
aa(lp515
F4.78660361901
aF7.693304061889648
aa(lp516
F16.2447336562
aF1.1449055671691895
aa(lp517
F24.5751241762
aF0.5624246597290039
aa(lp518
F17.0754914803
aF1.0564994812011719
aa(lp519
F23.3794937774
aF0.6056839227676392
aa(lp520
F6.36052530761
aF5.02250862121582
aa(lp521
F4.37560745116
aF8.699841499328613
aa(lp522
F4.39748548841
aF8.630386352539062
aa(lp523
F8.88421628081
aF1.3921642303466797
aa(lp524
F17.5942023832
aF0.9920787811279297
aa(lp525
F28.6842590117
aF0.47438621520996094
aa(lp526
F7.68782221882
aF3.79189395904541
aa(lp527
F9.15409664434
aF1.0205488204956055
aa(lp528
F5.67118173403
aF5.8795976638793945
aa(lp529
F10.8458000313
aF1.6163444519042969
aa(lp530
F4.18353876364
aF8.753173828125
aa(lp531
F8.20280022263
aF3.3516740798950195
aa(lp532
F15.5316658805
aF1.2246785163879395
aa(lp533
F5.47660138938
aF6.098836898803711
aa(lp534
F21.6942268461
aF0.672461986541748
aa(lp535
F10.9545291766
aF1.717996597290039
aa(lp536
F22.8036724716
aF0.622870683670044
aa(lp537
F4.26783916411
aF8.849292755126953
aa(lp538
F4.73909419965
aF7.773027420043945
aa(lp539
F14.9987686747
aF1.2990970611572266
aa(lp540
F6.58651093602
aF4.742368698120117
aa(lp541
F32.9832437751
aF0.486714243888855
aa(lp542
F6.85462832601
aF4.58228874206543
aa(lp543
F17.2466732824
aF1.0358848571777344
aa(lp544
F13.9176105838
aF1.4780645370483398
aa(lp545
F6.75282859089
aF4.602298736572266
aa(lp546
F5.36842493929
aF6.338006973266602
aa(lp547
F27.2887107412
aF0.49392688274383545
aa(lp548
F5.15844009188
aF6.776485443115234
aa(lp549
F5.39526706398
aF6.298145294189453
aa(lp550
F21.3720406616
aF0.6958293914794922
aa(lp551
F19.6346399552
aF0.801846981048584
aa(lp552
F19.1510518961
aF0.8374691009521484
aa(lp553
F27.5622800663
aF0.48624587059020996
aa(lp554
F32.3317429682
aF0.48468226194381714
aa(lp555
F20.2310914149
aF0.7604613304138184
aa(lp556
F4.53107014514
aF8.17164421081543
aa(lp557
F8.70873099153
aF2.0302810668945312
aa(lp558
F27.1529460111
aF0.4926062226295471
aa(lp559
F10.064000891
aF0.8997251987457275
aa(lp560
F12.6592946207
aF1.7452740669250488
aa(lp561
F5.23620422107
aF6.617038726806641
aa(lp562
F15.3010013722
aF1.2602500915527344
aa(lp563
F4.46377813183
aF8.421764373779297
aa(lp564
F13.1746170829
aF1.629920482635498
aa(lp565
F12.5336448313
aF1.774810791015625
aa(lp566
F32.6558686915
aF0.4842262268066406
aa(lp567
F24.9455972451
aF0.5519609451293945
aa(lp568
F7.13365998236
aF4.282138824462891
aa(lp569
F24.6979997971
aF0.5598087310791016
aa(lp570
F26.0908640617
aF0.5184378623962402
aa(lp571
F9.81613127544
aF0.9292936325073242
aa(lp572
F27.4251542949
aF0.48996490240097046
aa(lp573
F5.4493546163
aF6.183088302612305
aa(lp574
F33.6478726494
aF0.5166459083557129
aa(lp575
F25.8318992715
aF0.5231857299804688
aa(lp576
F9.86521193182
aF0.9250695705413818
aa(lp577
F19.4397563973
aF0.8147799968719482
aa(lp578
F4.14201506264
aF8.67431640625
aa(lp579
F20.8456615844
aF0.7269859313964844
aa(lp580
F18.8666350149
aF0.8606605529785156
aa(lp581
F32.4934016831
aF0.4791909456253052
aa(lp582
F25.4482635179
aF0.536188006401062
aa(lp583
F16.6549335377
aF1.098698616027832
aa(lp584
F7.31379383631
aF4.122058868408203
aa(lp585
F6.08132801641
aF5.442718505859375
aa(lp586
F6.68580341169
aF4.662328720092773
aa(lp587
F17.3329066488
aF1.0140037536621094
aa(lp588
F6.42428957382
aF4.902448654174805
aa(lp589
F10.0139312348
aF0.9039492607116699
aa(lp590
F9.38524905587
aF0.9877800941467285
aa(lp591
F5.6995376427
aF5.9229583740234375
aa(lp592
F5.5591618399
aF5.959321022033691
aa(lp593
F4.71551661657
aF7.872681617736816
aa(lp594
F17.9487343693
aF0.9534263610839844
aa(lp595
F14.1980574046
aF1.4173221588134766
aa(lp596
F18.1286704313
aF0.9353885650634766
aa(lp597
F17.4195711821
aF1.0114188194274902
aa(lp598
F11.7467731264
aF2.03486967086792
aa(lp599
F4.8105366371
aF7.573719024658203
aa(lp600
F11.6883314691
aF2.0606346130371094
aa(lp601
F32.819148035
aF0.48554205894470215
aa(lp602
F30.3019316841
aF0.47452473640441895
aa(lp603
F7.53596867728
aF3.911953926086426
aa(lp604
F18.4019624042
aF0.90704345703125
aa(lp605
F16.5720731719
aF1.1089668273925781
aa(lp606
F7.57364852066
aF3.8419189453125
aa(lp607
F10.2157169624
aF0.8829193115234375
aa(lp608
F16.9060087427
aF1.0703372955322266
aa(lp609
F23.8506022814
aF0.5873298645019531
aa(lp610
F28.9718187083
aF0.4758502244949341
aa(lp611
F33.9851925727
aF0.5362653732299805
aa(lp612
F30.9125307774
aF0.47452473640441895
aa(lp613
F4.50852750761
aF8.251367568969727
aa(lp614
F5.87267540098
aF5.682838439941406
aa(lp615
F22.4650096431
aF0.640026330947876
aa(lp616
F9.33855627449
aF0.9863548278808594
aa(lp617
F5.90203877799
aF5.664253234863281
aa(lp618
F11.1196700733
aF1.8734989166259766
aa(lp619
F4.24660613344
aF8.889154434204102
aa(lp620
F11.9238571997
aF1.966409683227539
aa(lp621
F9.29209579552
aF1.0003900527954102
aa(lp622
F7.64957434708
aF3.801898956298828
aa(lp623
F5.2101534538
aF6.617038726806641
aa(lp624
F4.66871277104
aF7.892612457275391
aa(lp625
F7.4984762958
aF3.9219589233398438
aa(lp626
F6.05107265314
aF5.502748489379883
aa(lp627
F13.3066926192
aF1.609673023223877
aa(lp628
F5.18423229234
aF6.716692924499512
aa(lp629
F9.52673285854
aF0.9667634963989258
aa(lp630
F29.4085724968
aF0.47850120067596436
aa(lp631
F12.9789576736
aF1.6754772663116455
aa(lp632
F28.5415512554
aF0.4757039546966553
aa(lp633
F29.2622611908
aF0.47452473640441895
aa(lp634
F4.41947291585
aF8.590797424316406
aa(lp635
F5.28869716839
aF6.537315368652344
aa(lp636
F4.35383825986
aF8.669975280761719
aa(lp637
F8.32645846134
aF3.0373077392578125
aa(lp638
F26.6166080343
aF0.5124161243438721
aa(lp639
F10.6315686016
aF1.2464866638183594
aa(lp640
F16.0834966027
aF1.152925968170166
aa(lp641
F15.8446367235
aF1.1968059539794922
aa(lp642
F20.0302877799
aF0.7733943462371826
aa(lp643
F11.2873004896
aF1.9787812232971191
aa(lp644
F6.99275251837
aF4.422208786010742
aa(lp645
F18.2193137835
aF0.9225044250488281
aa(lp646
F6.45641102169
aF4.862428665161133
aa(lp647
F15.6093242099
aF1.217264175415039
aa(lp648
F19.732813155
aF0.7966737747192383
aa(lp649
F10.4215687735
aF0.8574504852294922
aa(lp650
F4.080501
aF8.29095458984375
aa(lp651
F4.44157028043
aF8.450675964355469
aa(lp652
F31.2224288985
aF0.4757039546966553
aa(lp653
F21.9117114703
aF0.662076473236084
aa(lp654
F4.90747135861
aF7.414272308349609
aa(lp655
F11.6301805663
aF2.075364589691162
aa(lp656
F7.06285486237
aF4.362178802490234
aa(lp657
F7.2774068023
aF4.162078857421875
aa(lp658
F5.72803533091
aF5.8431243896484375
aa(lp659
F9.10855387497
aF1.0247313976287842
aa(lp660
F6.2348891695
aF5.142568588256836
aa(lp661
F16.1639140858
aF1.1478245258331299
aa(lp662
F8.08097846219
aF3.5959577560424805
aa(lp663
F24.3312038575
aF0.5672555565834045
aa(lp664
F6.71923242875
aF4.602298736572266
aa(lp665
F8.62229250912
aF2.288482666015625
aa(lp666
F4.22547873975
aF8.968877792358398
aa(lp667
F5.5869576491
aF6.023008346557617
aa(lp668
F12.1036108374
aF1.905904769897461
aa(lp669
F31.6931109169
aF0.47438621520996094
aa(lp670
F11.864534527
aF2.0098800659179688
aa(lp671
F19.9306346068
aF0.7811541557312012
aa(lp672
F16.9905387864
aF1.0678939819335938
aa(lp673
F12.9143857449
aF1.6901264190673828
aa(lp674
F13.043852462
aF1.6698246002197266
aa(lp675
F5.00635936329
aF7.13524055480957
aa(lp676
F5.81438617953
aF5.702848434448242
aa(lp677
F9.47933617765
aF0.9751701354980469
aa(lp678
F5.3417163575
aF6.397799491882324
aa(lp679
F25.5755048355
aF0.5315961837768555
aa(lp680
F21.8026979804
aF0.667269229888916
aa(lp681
F4.93200871541
aF7.3345489501953125
aa(lp682
F18.0384780411
aF0.9456958770751953
aa(lp683
F10.1143208955
aF0.8956537246704102
aa(lp684
F6.26606361535
aF5.082538604736328
aa(lp685
F4.0602
aF8.081722259521484
aa(lp686
F22.9176908339
aF0.6176583766937256
aa(lp687
F34.4975235989
aF0.5794638395309448
aa(lp688
F22.0212700276
aF0.659480094909668
aa(lp689
F6.2038698204
aF5.22260856628418
aa(lp690
F4.83458932029
aF7.573719024658203
aa(lp691
F13.8483687401
aF1.4831264019012451
aa(lp692
F34.1551185356
aF0.5446860790252686
aa(lp693
F8.36809075365
aF2.9579010009765625
aa(lp694
F4.04
aF7.873931884765625
aa(lp695
F34.3258941283
aF0.5603229999542236
aa(lp696
F26.221318382
aF0.5176987648010254
aa(lp697
F27.7000914667
aF0.48888134956359863
aa(lp698
F6.95796270485
aF4.442218780517578
aa(lp699
F21.0546393417
aF0.7114076614379883
aa(lp700
F4.95666875898
aF7.294687271118164
aa(lp701
F4.100903505
aF8.408279418945312
aa(lp702
F19.2468071556
aF0.8271617889404297
aa(lp703
F29.7033934361
aF0.47850120067596436
aa(lp704
F9.57436652283
aF0.9583568572998047
aa(lp705
F26.3524249739
aF0.5163781046867371
aa(lp706
F6.02096781407
aF5.482738494873047
aa(lp707
F16.8218992464
aF1.083296298980713
aa(lp708
F14.924147935
aF1.3059849739074707
aa(lp709
F14.6293590268
aF1.3568015098571777
aa(lp710
F34.6700112169
aF0.6056839227676392
aa(lp711
F6.39232793415
aF4.922458648681641
aa(lp712
F4.55372549587
aF8.17164421081543
aa(lp713
F11.0093018225
aF1.786651611328125
aa(lp714
F5.96120671674
aF5.582788467407227
aa(lp715
F11.1752684237
aF1.9044880867004395
aa(lp716
F11.8055069921
aF2.006746292114258
aa(lp717
F5.75667550757
aF5.86292839050293
aa(lp718
F33.4804702979
aF0.5087981224060059
aa(lp719
F8.28503329487
aF3.181589126586914
aa(lp720
F14.8498984428
aF1.3212299346923828
aa(lp721
F23.263177888
aF0.6072337627410889
aa(lp722
F8.40993120741
aF2.8784942626953125
aa(lp723
F6.55374222489
aF4.782388687133789
aa(lp724
F30.758737092
aF0.47054827213287354
aa(lp725
F13.7109167992
aF1.5236213207244873
aa(lp726
F6.52113654218
aF4.782388687133789
aa(lp727
F13.2404901683
aF1.6342964172363281
aa(lp728
F12.7225910938
aF1.7311577796936035
aa(lp729
F4.31062425173
aF8.749153137207031
aa(lp730
F19.3430411913
aF0.8194313049316406
aa(lp731
F8.16199027128
aF3.4217090606689453
aa(lp732
F15.7658076851
aF1.201920509338379
aa(lp733
F7.72626132991
aF3.781888961791992
aa(lp734
F12.8501350695
aF1.7042217254638672
aa(lp735
F10.318129525
aF0.8701848983764648
aa(lp736
F5.03139116011
aF7.035586357116699
aa(lp737
F6.11173465649
aF5.422708511352539
aa(lp738
F12.4712883893
aF1.774810791015625
aa(lp739
F15.454393911
aF1.2348418235778809
aa(lp740
F5.31514065423
aF6.483238220214844
aa(lp741
F13.6427032828
aF1.5489306449890137
aa(lp742
F13.9871986367
aF1.462878942489624
aa(lp743
F17.506669038
aF1.0049629211425781
aa(lp744
F4.59937659397
aF8.115730285644531
aa(lp745
F14.4841553692
aF1.3909363746643066
aa(lp746
F20.4339081063
aF0.7451605796813965
aa(lp747
F23.4963912463
aF0.5990476608276367
aa(lp748
F26.7496910745
aF0.5084541440010071
aa(lp749
F33.8161120127
aF0.5238368511199951
aa(lp750
F11.4574579554
aF2.0470829010009766
aa(lp751
F33.148159994
aF0.4947528839111328
aa(lp752
F21.1599125385
aF0.7088112831115723
aa(lp753
F11.343736992
aF1.9988703727722168
aa(lp754
F11.2311447658
aF1.945971965789795
aa(lp755
F8.79603601972
aF1.7115936279296875
aa(lp756
F8.97328054903
aF1.0456442832946777
aa(lp757
F7.20517492369
aF4.222108840942383
aa(lp758
F31.5354337482
aF0.47543764114379883
aa(lp759
F5.84345811043
aF5.6841278076171875
aa(lp760
F7.84273568524
aF3.7618789672851562
aa(lp761
F23.7319425685
aF0.5907822847366333
aa(lp762
F12.0433938681
aF1.9159889221191406
aa(lp763
F10.3697201726
aF0.8659400939941406
aa(lp764
F9.19986712756
aF1.012183666229248
aa(lp765
F5.08183085649
aF6.89607048034668
aa(lp766
F6.92334597497
aF4.542268753051758
aa(lp767
F11.5147452452
aF2.0606346130371094
aa(lp768
F4.12140802252
aF8.551270484924316
aa(lp769
F4.16272513795
aF8.7137451171875
aa(lp770
F6.78659273385
aF4.58228874206543
aa(lp771
F5.26238524217
aF6.557246208190918
aa(lp772
F28.2582621771
aF0.47833943367004395
aa(lp773
F16.4075871111
aF1.1295032501220703
aa(lp774
F12.5963130554
aF1.7546424865722656
aa(lp775
F8.49424076777
aF2.670257568359375
aa(lp776
F10.7381500768
aF1.461761474609375
aa(lp777
F22.1313763777
aF0.6516909599304199
aa(lp778
F13.1090717243
aF1.6501679420471191
aa(lp779
F28.399553488
aF0.48072028160095215
aa(lp780
F4.64548534432
aF7.91778564453125
aa(lp781
F25.0703252313
aF0.5500178337097168
aa(lp782
F7.46117044358
aF3.9619789123535156
aa(lp783
F14.4120948947
aF1.3920128345489502
aa(lp784
F18.3104103524
aF0.9147739410400391
aa(lp785
F5.53150431831
aF5.99918270111084
aa(lp786
F20.3322468719
aF0.7529497146606445
aa(lp787
F25.7033823597
aF0.5258016586303711
aa(lp788
F4.57649412335
aF8.131782531738281
aa(lp789
F16.0034792067
aF1.1712331771850586
aa(lp790
F18.7727711591
aF0.8683910369873047
aa(lp791
F6.88890146764
aF4.562278747558594
aa(lp792
F14.2690476916
aF1.4228630065917969
aa(lp793
F6.14229332977
aF5.322658538818359
aa(lp794
F24.8214897961
aF0.5571928024291992
aa(lp795
F9.2458664632
aF1.0038185119628906
aa(lp796
F11.0643483316
aF1.82635498046875
aa(lp797
F4.85876226689
aF7.454133987426758
aa(lp798
F25.1956768574
aF0.5447545051574707
aa(lp799
F20.1304392188
aF0.7685279846191406
aa(lp800
F10.2667955473
aF0.8786745071411133
aa(lp801
F5.10724001077
aF6.935932159423828
aa(lp802
F4.48609702249
aF8.331090927124023
aa(lp803
F27.9777848836
aF0.48512864112854004
aa(lp804
F18.5864420773
aF0.8915824890136719
aa(lp805
F6.4886930768
aF4.822408676147461
aa(lp806
F6.3288809031
aF5.02250862121582
aa(lp807
F7.09816913668
aF4.342168807983398
aa(lp808
F12.2249495361
aF1.8576164245605469
aa(lp809
F24.4528598768
aF0.5650405883789062
aa(lp810
F8.53671197161
aF2.5322608947753906
aa(lp811
F11.9834764857
aF1.9361572265625
aa(lp812
F9.96411068144
aF0.9123973846435547
aa(lp813
F4.76278967065
aF7.673373222351074
aa(lp814
F14.0571346299
aF1.462266445159912
aa(lp815
F8.66540397167
aF2.1349411010742188
aa(lp816
F11.400455677
aF2.026914596557617
aa(lp817
F12.2860742838
aF1.8252315521240234
aa(lp818
F20.5360776468
aF0.7425642013549805
aa(lp819
F22.5773346913
aF0.6309199333190918
aa(lp820
F4.20445645746
aF8.933258056640625
aa(lp821
F13.5072926737
aF1.57423996925354
aa(lp822
F10.4736766174
aF0.853205680847168
aa(lp823
F7.38711461952
aF4.022008895874023
aa(lp824
F8.00077073557
aF3.6562252044677734
aa(lp825
F5.61489243735
aF5.962978363037109
aa(lp826
F11.5723189714
aF2.0910873413085938
aa(lp827
F7.96096590604
aF3.676314353942871
aa(lp828
F25.9610587679
aF0.5223853588104248
aa(lp829
F21.2657121011
aF0.7010221481323242
aa(lp830
F25.3216552417
aF0.5362653732299805
aa(lp831
F14.3403929301
aF1.4067264795303345
aa(lp832
F15.3775063791
aF1.253066062927246
aa(lp833
F6.65254070815
aF4.702348709106445
aa(lp834
F12.4092421784
aF1.7949790954589844
aa(lp835
F18.4939722162
aF0.8967361450195312
aa(lp836
F23.6138732025
aF0.593815803527832
aa(lp837
F5.13277621083
aF6.816347122192383
aa(lp838
F4.6920563349
aF7.892612457275391
aa(lp839
F19.0557730309
aF0.8484058380126953
aa(lp840
F32.1708885256
aF0.4820409417152405
aa(lp841
F9.76729480144
aF0.9331369400024414
aa(lp842
F4.88305607822
aF7.414272308349609
aa(lp843
F5.50398439633
aF6.039044380187988
aa(lp844
F20.9498898923
aF0.7191967964172363
aa(lp845
F31.0670934313
aF0.47438621520996094
aa(lp846
F6.82052569752
aF4.600415229797363
aa(lp847
F22.3532434259
aF0.6426386833190918
aa(lp848
F20.7419518252
aF0.7321786880493164
aa(lp849
F5.64296689953
aF5.862998962402344
aa(lp850
F29.1166778018
aF0.47043299674987793
aa(lp851
F9.06323768653
aF1.0330965518951416
aa(lp852
F5.4222433993
aF6.2431182861328125
aa(lp853
F17.6821733951
aF0.9817714691162109
aa(lp854
F10.5260450004
aF1.0281801223754883
aa(lp855
F19.5369551793
aF0.8096067905426025
aa(lp856
F29.5556153593
aF0.4758502244949341
aa(lp857
F27.838591924
aF0.4877796173095703
aa(lp858
F14.556576146
aF1.3720464706420898
aa(lp859
F10.6847264446
aF1.3675861358642578
aa(lp860
F9.43217530115
aF0.9738693237304688
aa(lp861
F6.17300479642
aF5.242618560791016
aa(lp862
F30.6057085492
aF0.47043299674987793
aa(lp863
F32.0108343538
aF0.4793996214866638
aa(lp864
F14.1274203031
aF1.442631483078003
aa(lp865
F8.84001619982
aF1.5730667114257812
aa(lp866
F15.9238599072
aF1.1859784126281738
aa(lp867
F16.3259573245
aF1.1397714614868164
aa(lp868
F12.7862040493
aF1.7205791473388672
aa(lp869
F10.9000290315
aF1.6718788146972656
aa(lp870
F16.4896250466
aF1.1243691444396973
aa(lp871
F7.92135911049
aF3.7018489837646484
aa(lp872
F31.8515764715
aF0.4780789613723755
aa(lp873
F8.1213833545
aF3.51560115814209
aa(lp874
F18.6793742877
aF0.8812751770019531
aa(lp875
F7.76489263656
aF3.7618789672851562
aatp876
Rp877
aa(lp878
S'central'
p879
ag0
((lp880
(lp881
F6.6194434907
aF7.40625
aa(lp882
F4.62237347694
aF12.6875
aa(lp883
F17.7705842621
aF1.4765625
aa(lp884
F23.9698552928
aF0.8671875
aa(lp885
F34.843361273
aF0.94140625
aa(lp886
F5.78545888511
aF9.03125
aa(lp887
F12.3475046552
aF2.8125
aa(lp888
F27.0178567275
aF0.734375
aa(lp889
F13.4400922127
aF2.453125
aa(lp890
F28.8276803068
aF0.701171875
aa(lp891
F24.2101530921
aF0.85546875
aa(lp892
F15.1491313306
aF1.953125
aa(lp893
F13.3732260823
aF2.4453125
aa(lp894
F33.313900794
aF0.7421875
aa(lp895
F13.5748291371
aF2.421875
aa(lp896
F7.16932828228
aF6.625
aa(lp897
F13.7794713832
aF2.3359375
aa(lp898
F8.04077458925
aF5.640625
aa(lp899
F26.8834395298
aF0.74609375
aa(lp900
F4.33217737299
aF13.8125
aa(lp901
F7.42405019262
aF6.28125
aa(lp902
F30.4534413425
aF0.701171875
aa(lp903
F22.2420332596
aF0.97265625
aa(lp904
F29.8519104033
aF0.708984375
aa(lp905
F8.57939553147
aF3.890625
aa(lp906
F8.75227464648
aF3.109375
aa(lp907
F17.8594371834
aF1.4609375
aa(lp908
F10.1648924999
aF1.640625
aa(lp909
F7.24120079831
aF6.5
aa(lp910
F14.7025058219
aF2.0703125
aa(lp911
F14.776018351
aF2.046875
aa(lp912
F7.02771628096
aF6.84375
aa(lp913
F15.2248769873
aF1.9453125
aa(lp914
F8.92863736222
aF2.171875
aa(lp915
F24.0897045692
aF0.859375
aa(lp916
F20.6387580351
aF1.109375
aa(lp917
F8.24381422375
aF5.109375
aa(lp918
F9.71870129496
aF1.75
aa(lp919
F6.29739393343
aF7.9375
aa(lp920
F16.7382082054
aF1.6640625
aa(lp921
F9.62223835545
aF1.7734375
aa(lp922
F23.1474406845
aF0.91796875
aa(lp923
F5.99101275032
aF8.65625
aa(lp924
F30.0011699553
aF0.70703125
aa(lp925
F22.6902213647
aF0.9375
aa(lp926
F10.5786752254
aF1.9609375
aa(lp927
F21.5862953693
aF1.0234375
aa(lp928
F9.67034954722
aF1.7578125
aa(lp929
F19.8314772207
aF1.19140625
aa(lp930
F17.1608689377
aF1.59375
aa(lp931
F7.80371709974
aF5.828125
aa(lp932
F10.7918408272
aF2.5
aa(lp933
F26.4841870988
aF0.759765625
aa(lp934
F7.35036280549
aF6.40625
aa(lp935
F7.88194936367
aF5.828125
aa(lp936
F9.01814695177
aF1.9453125
aa(lp937
F31.3785410429
aF0.69921875
aa(lp938
F18.96096819
aF1.29296875
aa(lp939
F15.073762518
aF1.9765625
aa(lp940
F4.28917835993
aF13.8125
aa(lp941
F21.478900865
aF1.03515625
aa(lp942
F7.61151676327
aF5.96875
aa(lp943
F9.91453799148
aF1.6953125
aa(lp944
F15.687370831
aF1.859375
aa(lp945
F4.98145210278
aF11.3125
aa(lp946
F5.05654811591
aF10.90625
aa(lp947
F8.45198086345
aF4.390625
aa(lp948
F5.93154897188
aF8.78125
aa(lp949
F23.0322792881
aF0.921875
aa(lp950
F30.151175805
aF0.701171875
aa(lp951
F28.1176738081
aF0.712890625
aa(lp952
F12.1641288916
aF2.890625
aa(lp953
F4.78660361901
aF12.0625
aa(lp954
F16.2447336562
aF1.7421875
aa(lp955
F24.5751241762
aF0.83984375
aa(lp956
F17.0754914803
aF1.6015625
aa(lp957
F23.3794937774
aF0.90234375
aa(lp958
F6.36052530761
aF7.84375
aa(lp959
F4.37560745116
aF13.6875
aa(lp960
F4.39748548841
aF13.625
aa(lp961
F8.88421628081
aF2.421875
aa(lp962
F17.5942023832
aF1.50390625
aa(lp963
F28.6842590117
aF0.703125
aa(lp964
F7.68782221882
aF5.921875
aa(lp965
F9.15409664434
aF1.90625
aa(lp966
F5.67118173403
aF9.21875
aa(lp967
F10.8458000313
aF2.59375
aa(lp968
F4.18353876364
aF13.875
aa(lp969
F8.20280022263
aF5.234375
aa(lp970
F15.5316658805
aF1.8828125
aa(lp971
F5.47660138938
aF9.5625
aa(lp972
F21.6942268461
aF1.01171875
aa(lp973
F10.9545291766
aF2.734375
aa(lp974
F22.8036724716
aF0.93359375
aa(lp975
F4.26783916411
aF13.875
aa(lp976
F4.73909419965
aF12.1875
aa(lp977
F14.9987686747
aF1.984375
aa(lp978
F6.58651093602
aF7.40625
aa(lp979
F32.9832437751
aF0.724609375
aa(lp980
F6.85462832601
aF7.15625
aa(lp981
F17.2466732824
aF1.5703125
aa(lp982
F13.9176105838
aF2.28125
aa(lp983
F6.75282859089
aF7.1875
aa(lp984
F5.36842493929
aF9.9375
aa(lp985
F27.2887107412
aF0.73046875
aa(lp986
F5.15844009188
aF10.625
aa(lp987
F5.39526706398
aF9.875
aa(lp988
F21.3720406616
aF1.046875
aa(lp989
F19.6346399552
aF1.2109375
aa(lp990
F19.1510518961
aF1.26953125
aa(lp991
F27.5622800663
aF0.720703125
aa(lp992
F32.3317429682
aF0.716796875
aa(lp993
F20.2310914149
aF1.1484375
aa(lp994
F4.53107014514
aF12.8125
aa(lp995
F8.70873099153
aF3.3125
aa(lp996
F27.1529460111
aF0.728515625
aa(lp997
F10.064000891
aF1.6640625
aa(lp998
F12.6592946207
aF2.6953125
aa(lp999
F5.23620422107
aF10.375
aa(lp1000
F15.3010013722
aF1.9375
aa(lp1001
F4.46377813183
aF13.25
aa(lp1002
F13.1746170829
aF2.515625
aa(lp1003
F12.5336448313
aF2.75
aa(lp1004
F32.6558686915
aF0.71875
aa(lp1005
F24.9455972451
aF0.82421875
aa(lp1006
F7.13365998236
aF6.6875
aa(lp1007
F24.6979997971
aF0.8359375
aa(lp1008
F26.0908640617
aF0.76953125
aa(lp1009
F9.81613127544
aF1.71875
aa(lp1010
F27.4251542949
aF0.724609375
aa(lp1011
F5.4493546163
aF9.65625
aa(lp1012
F33.6478726494
aF0.771484375
aa(lp1013
F25.8318992715
aF0.78125
aa(lp1014
F9.86521193182
aF1.7109375
aa(lp1015
F19.4397563973
aF1.23046875
aa(lp1016
F4.14201506264
aF13.75
aa(lp1017
F20.8456615844
aF1.09375
aa(lp1018
F18.8666350149
aF1.3046875
aa(lp1019
F32.4934016831
aF0.712890625
aa(lp1020
F25.4482635179
aF0.79296875
aa(lp1021
F16.6549335377
aF1.671875
aa(lp1022
F7.31379383631
aF6.4375
aa(lp1023
F6.08132801641
aF8.5
aa(lp1024
F6.68580341169
aF7.28125
aa(lp1025
F17.3329066488
aF1.546875
aa(lp1026
F6.42428957382
aF7.65625
aa(lp1027
F10.0139312348
aF1.671875
aa(lp1028
F9.38524905587
aF1.8359375
aa(lp1029
F5.6995376427
aF9.25
aa(lp1030
F5.5591618399
aF9.34375
aa(lp1031
F4.71551661657
aF12.34375
aa(lp1032
F17.9487343693
aF1.4453125
aa(lp1033
F14.1980574046
aF2.1875
aa(lp1034
F18.1286704313
aF1.41796875
aa(lp1035
F17.4195711821
aF1.5390625
aa(lp1036
F11.7467731264
aF3.140625
aa(lp1037
F4.8105366371
aF11.875
aa(lp1038
F11.6883314691
aF3.171875
aa(lp1039
F32.819148035
aF0.720703125
aa(lp1040
F30.3019316841
aF0.69921875
aa(lp1041
F7.53596867728
aF6.109375
aa(lp1042
F18.4019624042
aF1.375
aa(lp1043
F16.5720731719
aF1.6875
aa(lp1044
F7.57364852066
aF6.0
aa(lp1045
F10.2157169624
aF1.625
aa(lp1046
F16.9060087427
aF1.6328125
aa(lp1047
F23.8506022814
aF0.875
aa(lp1048
F28.9718187083
aF0.701171875
aa(lp1049
F33.9851925727
aF0.80078125
aa(lp1050
F30.9125307774
aF0.69921875
aa(lp1051
F4.50852750761
aF12.9375
aa(lp1052
F5.87267540098
aF8.875
aa(lp1053
F22.4650096431
aF0.95703125
aa(lp1054
F9.33855627449
aF1.8515625
aa(lp1055
F5.90203877799
aF8.90625
aa(lp1056
F11.1196700733
aF2.9375
aa(lp1057
F4.24660613344
aF13.9375
aa(lp1058
F11.9238571997
aF3.046875
aa(lp1059
F9.29209579552
aF1.859375
aa(lp1060
F7.64957434708
aF5.9375
aa(lp1061
F5.2101534538
aF10.375
aa(lp1062
F4.66871277104
aF12.375
aa(lp1063
F7.4984762958
aF6.125
aa(lp1064
F6.05107265314
aF8.59375
aa(lp1065
F13.3066926192
aF2.484375
aa(lp1066
F5.18423229234
aF10.53125
aa(lp1067
F9.52673285854
aF1.796875
aa(lp1068
F29.4085724968
aF0.705078125
aa(lp1069
F12.9789576736
aF2.5859375
aa(lp1070
F28.5415512554
aF0.705078125
aa(lp1071
F29.2622611908
aF0.69921875
aa(lp1072
F4.41947291585
aF13.5625
aa(lp1073
F5.28869716839
aF10.25
aa(lp1074
F4.35383825986
aF13.6875
aa(lp1075
F8.32645846134
aF4.78125
aa(lp1076
F26.6166080343
aF0.7578125
aa(lp1077
F10.6315686016
aF2.09375
aa(lp1078
F16.0834966027
aF1.765625
aa(lp1079
F15.8446367235
aF1.828125
aa(lp1080
F20.0302877799
aF1.16796875
aa(lp1081
F11.2873004896
aF3.078125
aa(lp1082
F6.99275251837
aF6.90625
aa(lp1083
F18.2193137835
aF1.3984375
aa(lp1084
F6.45641102169
aF7.59375
aa(lp1085
F15.6093242099
aF1.859375
aa(lp1086
F19.732813155
aF1.203125
aa(lp1087
F10.4215687735
aF1.578125
aa(lp1088
F4.080501
aF13.25
aa(lp1089
F4.44157028043
aF13.25
aa(lp1090
F31.2224288985
aF0.705078125
aa(lp1091
F21.9117114703
aF0.99609375
aa(lp1092
F4.90747135861
aF11.625
aa(lp1093
F11.6301805663
aF3.203125
aa(lp1094
F7.06285486237
aF6.8125
aa(lp1095
F7.2774068023
aF6.5
aa(lp1096
F5.72803533091
aF9.1875
aa(lp1097
F9.10855387497
aF1.9140625
aa(lp1098
F6.2348891695
aF8.03125
aa(lp1099
F16.1639140858
aF1.7578125
aa(lp1100
F8.08097846219
aF5.59375
aa(lp1101
F24.3312038575
aF0.84765625
aa(lp1102
F6.71923242875
aF7.1875
aa(lp1103
F8.62229250912
aF3.6875
aa(lp1104
F4.22547873975
aF14.0625
aa(lp1105
F5.5869576491
aF9.40625
aa(lp1106
F12.1036108374
aF2.953125
aa(lp1107
F31.6931109169
aF0.703125
aa(lp1108
F11.864534527
aF3.09375
aa(lp1109
F19.9306346068
aF1.1796875
aa(lp1110
F16.9905387864
aF1.625
aa(lp1111
F12.9143857449
aF2.6015625
aa(lp1112
F13.043852462
aF2.5703125
aa(lp1113
F5.00635936329
aF11.1875
aa(lp1114
F5.81438617953
aF8.90625
aa(lp1115
F9.47933617765
aF1.8125
aa(lp1116
F5.3417163575
aF10.03125
aa(lp1117
F25.5755048355
aF0.7890625
aa(lp1118
F21.8026979804
aF1.00390625
aa(lp1119
F4.93200871541
aF11.5
aa(lp1120
F18.0384780411
aF1.43359375
aa(lp1121
F10.1143208955
aF1.6484375
aa(lp1122
F6.26606361535
aF7.9375
aa(lp1123
F4.0602
aF12.96875
aa(lp1124
F22.9176908339
aF0.92578125
aa(lp1125
F34.4975235989
aF0.86328125
aa(lp1126
F22.0212700276
aF0.9921875
aa(lp1127
F6.2038698204
aF8.15625
aa(lp1128
F4.83458932029
aF11.875
aa(lp1129
F13.8483687401
aF2.2890625
aa(lp1130
F34.1551185356
aF0.81640625
aa(lp1131
F8.36809075365
aF4.65625
aa(lp1132
F4.04
aF12.6875
aa(lp1133
F34.3258941283
aF0.83984375
aa(lp1134
F26.221318382
aF0.765625
aa(lp1135
F27.7000914667
aF0.724609375
aa(lp1136
F6.95796270485
aF6.9375
aa(lp1137
F21.0546393417
aF1.0703125
aa(lp1138
F4.95666875898
aF11.4375
aa(lp1139
F4.100903505
aF13.4375
aa(lp1140
F19.2468071556
aF1.25390625
aa(lp1141
F29.7033934361
aF0.705078125
aa(lp1142
F9.57436652283
aF1.78125
aa(lp1143
F26.3524249739
aF0.763671875
aa(lp1144
F6.02096781407
aF8.5625
aa(lp1145
F16.8218992464
aF1.6484375
aa(lp1146
F14.924147935
aF2.0078125
aa(lp1147
F14.6293590268
aF2.0859375
aa(lp1148
F34.6700112169
aF0.90234375
aa(lp1149
F6.39232793415
aF7.6875
aa(lp1150
F4.55372549587
aF12.8125
aa(lp1151
F11.0093018225
aF2.8125
aa(lp1152
F5.96120671674
aF8.71875
aa(lp1153
F11.1752684237
aF2.984375
aa(lp1154
F11.8055069921
aF3.109375
aa(lp1155
F5.75667550757
aF9.15625
aa(lp1156
F33.4804702979
aF0.759765625
aa(lp1157
F8.28503329487
aF4.96875
aa(lp1158
F14.8498984428
aF2.03125
aa(lp1159
F23.263177888
aF0.91015625
aa(lp1160
F8.40993120741
aF4.53125
aa(lp1161
F6.55374222489
aF7.46875
aa(lp1162
F30.758737092
aF0.693359375
aa(lp1163
F13.7109167992
aF2.3515625
aa(lp1164
F6.52113654218
aF7.46875
aa(lp1165
F13.2404901683
aF2.515625
aa(lp1166
F12.7225910938
aF2.671875
aa(lp1167
F4.31062425173
aF13.8125
aa(lp1168
F19.3430411913
aF1.2421875
aa(lp1169
F8.16199027128
aF5.34375
aa(lp1170
F15.7658076851
aF1.8359375
aa(lp1171
F7.72626132991
aF5.90625
aa(lp1172
F12.8501350695
aF2.640625
aa(lp1173
F10.318129525
aF1.6015625
aa(lp1174
F5.03139116011
aF11.03125
aa(lp1175
F6.11173465649
aF8.46875
aa(lp1176
F12.4712883893
aF2.75
aa(lp1177
F15.454393911
aF1.8984375
aa(lp1178
F5.31514065423
aF10.125
aa(lp1179
F13.6427032828
aF2.390625
aa(lp1180
F13.9871986367
aF2.2578125
aa(lp1181
F17.506669038
aF1.5234375
aa(lp1182
F4.59937659397
aF12.8125
aa(lp1183
F14.4841553692
aF2.1328125
aa(lp1184
F20.4339081063
aF1.12109375
aa(lp1185
F23.4963912463
aF0.89453125
aa(lp1186
F26.7496910745
aF0.751953125
aa(lp1187
F33.8161120127
aF0.78515625
aa(lp1188
F11.4574579554
aF3.171875
aa(lp1189
F33.148159994
aF0.734375
aa(lp1190
F21.1599125385
aF1.06640625
aa(lp1191
F11.343736992
aF3.109375
aa(lp1192
F11.2311447658
aF3.0390625
aa(lp1193
F8.79603601972
aF2.875
aa(lp1194
F8.97328054903
aF1.953125
aa(lp1195
F7.20517492369
aF6.59375
aa(lp1196
F31.5354337482
aF0.703125
aa(lp1197
F5.84345811043
aF8.9375
aa(lp1198
F7.84273568524
aF5.875
aa(lp1199
F23.7319425685
aF0.8828125
aa(lp1200
F12.0433938681
aF2.96875
aa(lp1201
F10.3697201726
aF1.59375
aa(lp1202
F9.19986712756
aF1.890625
aa(lp1203
F5.08183085649
aF10.8125
aa(lp1204
F6.92334597497
aF7.09375
aa(lp1205
F11.5147452452
aF3.171875
aa(lp1206
F4.12140802252
aF13.5625
aa(lp1207
F4.16272513795
aF13.8125
aa(lp1208
F6.78659273385
aF7.15625
aa(lp1209
F5.26238524217
aF10.28125
aa(lp1210
F28.2582621771
aF0.708984375
aa(lp1211
F16.4075871111
aF1.71875
aa(lp1212
F12.5963130554
aF2.71875
aa(lp1213
F8.49424076777
aF4.25
aa(lp1214
F10.7381500768
aF2.375
aa(lp1215
F22.1313763777
aF0.98046875
aa(lp1216
F13.1090717243
aF2.546875
aa(lp1217
F28.399553488
aF0.7109375
aa(lp1218
F4.64548534432
aF12.5
aa(lp1219
F25.0703252313
aF0.81640625
aa(lp1220
F7.46117044358
aF6.1875
aa(lp1221
F14.4120948947
aF2.1484375
aa(lp1222
F18.3104103524
aF1.38671875
aa(lp1223
F5.53150431831
aF9.40625
aa(lp1224
F20.3322468719
aF1.1328125
aa(lp1225
F25.7033823597
aF0.78515625
aa(lp1226
F4.57649412335
aF12.75
aa(lp1227
F16.0034792067
aF1.7890625
aa(lp1228
F18.7727711591
aF1.31640625
aa(lp1229
F6.88890146764
aF7.125
aa(lp1230
F14.2690476916
aF2.1875
aa(lp1231
F6.14229332977
aF8.3125
aa(lp1232
F24.8214897961
aF0.83203125
aa(lp1233
F9.2458664632
aF1.875
aa(lp1234
F11.0643483316
aF2.875
aa(lp1235
F4.85876226689
aF11.6875
aa(lp1236
F25.1956768574
aF0.80859375
aa(lp1237
F20.1304392188
aF1.15625
aa(lp1238
F10.2667955473
aF1.6171875
aa(lp1239
F5.10724001077
aF10.875
aa(lp1240
F4.48609702249
aF13.0625
aa(lp1241
F27.9777848836
aF0.71484375
aa(lp1242
F18.5864420773
aF1.3515625
aa(lp1243
F6.4886930768
aF7.53125
aa(lp1244
F6.3288809031
aF7.84375
aa(lp1245
F7.09816913668
aF6.78125
aa(lp1246
F12.2249495361
aF2.859375
aa(lp1247
F24.4528598768
aF0.84375
aa(lp1248
F8.53671197161
aF4.046875
aa(lp1249
F11.9834764857
aF3.0
aa(lp1250
F9.96411068144
aF1.6875
aa(lp1251
F4.76278967065
aF12.03125
aa(lp1252
F14.0571346299
aF2.2421875
aa(lp1253
F8.66540397167
aF3.46875
aa(lp1254
F11.400455677
aF3.140625
aa(lp1255
F12.2860742838
aF2.828125
aa(lp1256
F20.5360776468
aF1.1171875
aa(lp1257
F22.5773346913
aF0.94921875
aa(lp1258
F4.20445645746
aF14.0625
aa(lp1259
F13.5072926737
aF2.4296875
aa(lp1260
F10.4736766174
aF1.5703125
aa(lp1261
F7.38711461952
aF6.28125
aa(lp1262
F8.00077073557
aF5.6875
aa(lp1263
F5.61489243735
aF9.3125
aa(lp1264
F11.5723189714
aF3.21875
aa(lp1265
F7.96096590604
aF5.71875
aa(lp1266
F25.9610587679
aF0.775390625
aa(lp1267
F21.2657121011
aF1.0546875
aa(lp1268
F25.3216552417
aF0.80078125
aa(lp1269
F14.3403929301
aF2.1640625
aa(lp1270
F15.3775063791
aF1.9140625
aa(lp1271
F6.65254070815
aF7.34375
aa(lp1272
F12.4092421784
aF2.78125
aa(lp1273
F18.4939722162
aF1.359375
aa(lp1274
F23.6138732025
aF0.88671875
aa(lp1275
F5.13277621083
aF10.6875
aa(lp1276
F4.6920563349
aF12.375
aa(lp1277
F19.0557730309
aF1.28125
aa(lp1278
F32.1708885256
aF0.712890625
aa(lp1279
F9.76729480144
aF1.734375
aa(lp1280
F4.88305607822
aF11.625
aa(lp1281
F5.50398439633
aF9.46875
aa(lp1282
F20.9498898923
aF1.08203125
aa(lp1283
F31.0670934313
aF0.703125
aa(lp1284
F6.82052569752
aF7.15625
aa(lp1285
F22.3532434259
aF0.9609375
aa(lp1286
F20.7419518252
aF1.1015625
aa(lp1287
F5.64296689953
aF9.21875
aa(lp1288
F29.1166778018
aF0.697265625
aa(lp1289
F9.06323768653
aF1.9296875
aa(lp1290
F5.4222433993
aF9.75
aa(lp1291
F17.6821733951
aF1.48828125
aa(lp1292
F10.5260450004
aF1.796875
aa(lp1293
F19.5369551793
aF1.22265625
aa(lp1294
F29.5556153593
aF0.701171875
aa(lp1295
F27.838591924
aF0.71875
aa(lp1296
F14.556576146
aF2.109375
aa(lp1297
F10.6847264446
aF2.2578125
aa(lp1298
F9.43217530115
aF1.828125
aa(lp1299
F6.17300479642
aF8.1875
aa(lp1300
F30.6057085492
aF0.697265625
aa(lp1301
F32.0108343538
aF0.708984375
aa(lp1302
F14.1274203031
aF2.2265625
aa(lp1303
F8.84001619982
aF2.6875
aa(lp1304
F15.9238599072
aF1.8046875
aa(lp1305
F16.3259573245
aF1.734375
aa(lp1306
F12.7862040493
aF2.6484375
aa(lp1307
F10.9000290315
aF2.671875
aa(lp1308
F16.4896250466
aF1.7109375
aa(lp1309
F7.92135911049
aF5.78125
aa(lp1310
F31.8515764715
aF0.70703125
aa(lp1311
F8.1213833545
aF5.46875
aa(lp1312
F18.6793742877
aF1.3359375
aa(lp1313
F7.76489263656
aF5.875
aatp1314
Rp1315
aa(lp1316
S'up1'
p1317
ag0
((lp1318
(lp1319
F6.6194434907
aF12.129711151123047
aa(lp1320
F4.62237347694
aF20.98145866394043
aa(lp1321
F17.7705842621
aF2.347637414932251
aa(lp1322
F23.9698552928
aF1.3545746803283691
aa(lp1323
F34.843361273
aF1.4742592573165894
aa(lp1324
F5.78545888511
aF14.863080024719238
aa(lp1325
F12.3475046552
aF4.538954734802246
aa(lp1326
F27.0178567275
aF1.1324809789657593
aa(lp1327
F13.4400922127
aF3.958977222442627
aa(lp1328
F28.8276803068
aF1.0784835815429688
aa(lp1329
F24.2101530921
aF1.3328596353530884
aa(lp1330
F15.1491313306
aF3.1520519256591797
aa(lp1331
F13.3732260823
aF3.946368932723999
aa(lp1332
F33.313900794
aF1.153403878211975
aa(lp1333
F13.5748291371
aF3.9085443019866943
aa(lp1334
F7.16932828228
aF10.903020858764648
aa(lp1335
F13.7794713832
aF3.7698540687561035
aa(lp1336
F8.04077458925
aF9.193060874938965
aa(lp1337
F26.8834395298
aF1.1535265445709229
aa(lp1338
F4.33217737299
aF22.731769561767578
aa(lp1339
F7.42405019262
aF10.287222862243652
aa(lp1340
F30.4534413425
aF1.0784835815429688
aa(lp1341
F22.2420332596
aF1.5231972932815552
aa(lp1342
F29.8519104033
aF1.0905001163482666
aa(lp1343
F8.57939553147
aF6.558034896850586
aa(lp1344
F8.75227464648
aF5.41467809677124
aa(lp1345
F17.8594371834
aF2.3169713020324707
aa(lp1346
F10.1648924999
aF3.1578125953674316
aa(lp1347
F7.24120079831
aF10.69730281829834
aa(lp1348
F14.7025058219
aF3.341175079345703
aa(lp1349
F14.776018351
aF3.3033504486083984
aa(lp1350
F7.02771628096
aF11.263026237487793
aa(lp1351
F15.2248769873
aF3.1239354610443115
aa(lp1352
F8.92863736222
aF4.093770503997803
aa(lp1353
F24.0897045692
aF1.338945746421814
aa(lp1354
F20.6387580351
aF1.7461453676223755
aa(lp1355
F8.24381422375
aF8.408697128295898
aa(lp1356
F9.71870129496
aF3.382284641265869
aa(lp1357
F6.29739393343
aF13.063053131103516
aa(lp1358
F16.7382082054
aF2.6590161323547363
aa(lp1359
F9.62223835545
aF3.4275829792022705
aa(lp1360
F23.1474406845
aF1.433896541595459
aa(lp1361
F5.99101275032
aF14.245927810668945
aa(lp1362
F30.0011699553
aF1.0874959230422974
aa(lp1363
F22.6902213647
aF1.4681419134140015
aa(lp1364
F10.5786752254
aF3.539846420288086
aa(lp1365
F21.5862953693
aF1.606801152229309
aa(lp1366
F9.67034954722
aF3.4113974571228027
aa(lp1367
F19.8314772207
aF1.8847596645355225
aa(lp1368
F17.1608689377
aF2.546663284301758
aa(lp1369
F7.80371709974
aF9.591571807861328
aa(lp1370
F10.7918408272
aF4.273788928985596
aa(lp1371
F26.4841870988
aF1.1746643781661987
aa(lp1372
F7.35036280549
aF10.543015480041504
aa(lp1373
F7.88194936367
aF9.545109748840332
aa(lp1374
F9.01814695177
aF3.790787935256958
aa(lp1375
F31.3785410429
aF1.0782665014266968
aa(lp1376
F18.96096819
aF2.050581693649292
aa(lp1377
F15.073762518
aF3.1898765563964844
aa(lp1378
F4.28917835993
aF22.951997756958008
aa(lp1379
F21.478900865
aF1.625199556350708
aa(lp1380
F7.61151676327
aF9.823004722595215
aa(lp1381
F9.91453799148
aF3.276588201522827
aa(lp1382
F15.687370831
aF2.971107244491577
aa(lp1383
F4.98145210278
aF18.707605361938477
aa(lp1384
F5.05654811591
aF18.035785675048828
aa(lp1385
F8.45198086345
aF7.295827388763428
aa(lp1386
F5.93154897188
aF14.451644897460938
aa(lp1387
F23.0322792881
aF1.4399982690811157
aa(lp1388
F30.151175805
aF1.0784835815429688
aa(lp1389
F28.1176738081
aF1.096508264541626
aa(lp1390
F12.1641288916
aF4.68808126449585
aa(lp1391
F4.78660361901
aF19.851726531982422
aa(lp1392
F16.2447336562
aF2.7838525772094727
aa(lp1393
F24.5751241762
aF1.305167555809021
aa(lp1394
F17.0754914803
aF2.5591471195220947
aa(lp1395
F23.3794937774
aF1.4094898700714111
aa(lp1396
F6.36052530761
aF12.908764839172363
aa(lp1397
F4.37560745116
aF22.635169982910156
aa(lp1398
F4.39748548841
aF22.423192977905273
aa(lp1399
F8.88421628081
aF4.449151515960693
aa(lp1400
F17.5942023832
aF2.4031014442443848
aa(lp1401
F28.6842590117
aF1.0814876556396484
aa(lp1402
F7.68782221882
aF9.74586009979248
aa(lp1403
F9.15409664434
aF3.6994709968566895
aa(lp1404
F5.67118173403
aF15.171655654907227
aa(lp1405
F10.8458000313
aF4.392701148986816
aa(lp1406
F4.18353876364
aF23.05585289001465
aa(lp1407
F8.20280022263
aF8.614415168762207
aa(lp1408
F15.5316658805
aF3.0085582733154297
aa(lp1409
F5.47660138938
aF15.73737907409668
aa(lp1410
F21.6942268461
aF1.5884026288986206
aa(lp1411
F10.9545291766
aF4.587262153625488
aa(lp1412
F22.8036724716
aF1.4620246887207031
aa(lp1413
F4.26783916411
aF23.05585289001465
aa(lp1414
F4.73909419965
aF20.057443618774414
aa(lp1415
F14.9987686747
aF3.2024848461151123
aa(lp1416
F6.58651093602
aF12.188754081726074
aa(lp1417
F32.9832437751
aF1.1231980323791504
aa(lp1418
F6.85462832601
aF11.720269203186035
aa(lp1419
F17.2466732824
aF2.5092124938964844
aa(lp1420
F13.9176105838
aF3.6815967559814453
aa(lp1421
F6.75282859089
aF11.771449089050293
aa(lp1422
F5.36842493929
aF16.354530334472656
aa(lp1423
F27.2887107412
aF1.1264572143554688
aa(lp1424
F5.15844009188
aF17.485977172851562
aa(lp1425
F5.39526706398
aF16.251672744750977
aa(lp1426
F21.3720406616
aF1.6435980796813965
aa(lp1427
F19.6346399552
aF1.9156574010849
aa(lp1428
F19.1510518961
aF2.0083506107330322
aa(lp1429
F27.5622800663
aF1.111397624015808
aa(lp1430
F32.3317429682
aF1.1082309484481812
aa(lp1431
F20.2310914149
aF1.8122071027755737
aa(lp1432
F4.53107014514
aF21.290315628051758
aa(lp1433
F8.70873099153
aF5.715585708618164
aa(lp1434
F27.1529460111
aF1.1263492107391357
aa(lp1435
F10.064000891
aF3.2029242515563965
aa(lp1436
F12.6592946207
aF4.349831581115723
aa(lp1437
F5.23620422107
aF17.157251358032227
aa(lp1438
F15.3010013722
aF3.0959436893463135
aa(lp1439
F4.46377813183
aF21.806041717529297
aa(lp1440
F13.1746170829
aF4.079897880554199
aa(lp1441
F12.5336448313
aF4.438089370727539
aa(lp1442
F32.6558686915
aF1.114115595817566
aa(lp1443
F24.9455972451
aF1.2808853387832642
aa(lp1444
F7.13365998236
aF11.005879402160645
aa(lp1445
F24.6979997971
aF1.299096941947937
aa(lp1446
F26.0908640617
aF1.1897629499435425
aa(lp1447
F9.81613127544
aF3.3355886936187744
aa(lp1448
F27.4251542949
aF1.1174213886260986
aa(lp1449
F5.4493546163
aF15.891666412353516
aa(lp1450
F33.6478726494
aF1.2020081281661987
aa(lp1451
F25.8318992715
aF1.2078810930252075
aa(lp1452
F9.86521193182
aF3.3067870140075684
aa(lp1453
F19.4397563973
aF1.9465551376342773
aa(lp1454
F4.14201506264
aF23.06737518310547
aa(lp1455
F20.8456615844
aF1.7171920537948608
aa(lp1456
F18.8666350149
aF2.069166898727417
aa(lp1457
F32.4934016831
aF1.1021915674209595
aa(lp1458
F25.4482635179
aF1.23232102394104
aa(lp1459
F16.6549335377
aF2.671499729156494
aa(lp1460
F7.31379383631
aF10.594444274902344
aa(lp1461
F6.08132801641
aF13.988780975341797
aa(lp1462
F6.68580341169
aF11.983036994934082
aa(lp1463
F17.3329066488
aF2.471761465072632
aa(lp1464
F6.42428957382
aF12.600189208984375
aa(lp1465
F10.0139312348
aF3.2312896251678467
aa(lp1466
F9.38524905587
aF3.5630152225494385
aa(lp1467
F5.6995376427
aF15.223085403442383
aa(lp1468
F5.5591618399
aF15.377373695373535
aa(lp1469
F4.71551661657
aF20.314590454101562
aa(lp1470
F17.9487343693
aF2.2921907901763916
aa(lp1471
F14.1980574046
aF3.5302982330322266
aa(lp1472
F18.1286704313
aF2.2544772624969482
aa(lp1473
F17.4195711821
aF2.4470083713531494
aa(lp1474
F11.7467731264
aF5.118574142456055
aa(lp1475
F4.8105366371
aF19.543149948120117
aa(lp1476
F11.6883314691
aF5.118932247161865
aa(lp1477
F32.819148035
aF1.117143154144287
aa(lp1478
F30.3019316841
aF1.0754793882369995
aa(lp1479
F7.53596867728
aF10.054436683654785
aa(lp1480
F18.4019624042
aF2.186159610748291
aa(lp1481
F16.5720731719
aF2.696467161178589
aa(lp1482
F7.57364852066
aF9.874433517456055
aa(lp1483
F10.2157169624
aF3.140692710876465
aa(lp1484
F16.9060087427
aF2.609081506729126
aa(lp1485
F23.8506022814
aF1.3632901906967163
aa(lp1486
F28.9718187083
aF1.0784835815429688
aa(lp1487
F33.9851925727
aF1.2476540803909302
aa(lp1488
F30.9125307774
aF1.0782665014266968
aa(lp1489
F4.50852750761
aF21.394886016845703
aa(lp1490
F5.87267540098
aF14.60593318939209
aa(lp1491
F22.4650096431
aF1.4987282752990723
aa(lp1492
F9.33855627449
aF3.59333872795105
aa(lp1493
F5.90203877799
aF14.65736198425293
aa(lp1494
F11.1196700733
aF4.857776165008545
aa(lp1495
F4.24660613344
aF23.15970802307129
aa(lp1496
F11.9238571997
aF4.917201042175293
aa(lp1497
F9.29209579552
aF3.623323440551758
aa(lp1498
F7.64957434708
aF9.771574974060059
aa(lp1499
F5.2101534538
aF17.157251358032227
aa(lp1500
F4.66871277104
aF20.46467399597168
aa(lp1501
F7.4984762958
aF10.080150604248047
aa(lp1502
F6.05107265314
aF14.14306926727295
aa(lp1503
F13.3066926192
aF4.0094099044799805
aa(lp1504
F5.18423229234
aF17.4156436920166
aa(lp1505
F9.52673285854
aF3.487206220626831
aa(lp1506
F29.4085724968
aF1.0844918489456177
aa(lp1507
F12.9789576736
aF4.193932056427002
aa(lp1508
F28.5415512554
aF1.0844918489456177
aa(lp1509
F29.2622611908
aF1.0754793882369995
aa(lp1510
F4.41947291585
aF22.32033348083496
aa(lp1511
F5.28869716839
aF16.868824005126953
aa(lp1512
F4.35383825986
aF22.635169982910156
aa(lp1513
F8.32645846134
aF7.906805992126465
aa(lp1514
F26.6166080343
aF1.171644687652588
aa(lp1515
F10.6315686016
aF3.7128307819366455
aa(lp1516
F16.0834966027
aF2.821303606033325
aa(lp1517
F15.8446367235
aF2.921172618865967
aa(lp1518
F20.0302877799
aF1.843026876449585
aa(lp1519
F11.2873004896
aF5.041251182556152
aa(lp1520
F6.99275251837
aF11.365884780883789
aa(lp1521
F18.2193137835
aF2.223423719406128
aa(lp1522
F6.45641102169
aF12.497329711914062
aa(lp1523
F15.6093242099
aF2.9859304428100586
aa(lp1524
F19.732813155
aF1.9032983779907227
aa(lp1525
F10.4215687735
aF3.0375149250030518
aa(lp1526
F4.080501
aF22.334192276000977
aa(lp1527
F4.44157028043
aF22.017301559448242
aa(lp1528
F31.2224288985
aF1.0844918489456177
aa(lp1529
F21.9117114703
aF1.5599008798599243
aa(lp1530
F4.90747135861
aF19.131715774536133
aa(lp1531
F11.6301805663
aF5.194900989532471
aa(lp1532
F7.06285486237
aF11.211596488952637
aa(lp1533
F7.2774068023
aF10.69730281829834
aa(lp1534
F5.72803533091
aF15.120226860046387
aa(lp1535
F9.10855387497
aF3.729891777038574
aa(lp1536
F6.2348891695
aF13.217340469360352
aa(lp1537
F16.1639140858
aF2.8088197708129883
aa(lp1538
F8.08097846219
aF9.11666488647461
aa(lp1539
F24.3312038575
aF1.3173086643218994
aa(lp1540
F6.71923242875
aF11.82874870300293
aa(lp1541
F8.62229250912
aF6.303838729858398
aa(lp1542
F4.22547873975
aF23.36741828918457
aa(lp1543
F5.5869576491
aF15.480232238769531
aa(lp1544
F12.1036108374
aF4.765902519226074
aa(lp1545
F31.6931109169
aF1.0870929956436157
aa(lp1546
F11.864534527
aF4.992850303649902
aa(lp1547
F19.9306346068
aF1.8615188598632812
aa(lp1548
F16.9905387864
aF2.596597909927368
aa(lp1549
F12.9143857449
aF4.219273090362549
aa(lp1550
F13.043852462
aF4.14810037612915
aa(lp1551
F5.00635936329
aF18.411705017089844
aa(lp1552
F5.81438617953
aF14.65736198425293
aa(lp1553
F9.47933617765
aF3.503080368041992
aa(lp1554
F5.3417163575
aF16.508819580078125
aa(lp1555
F25.5755048355
aF1.226250410079956
aa(lp1556
F21.8026979804
aF1.572135329246521
aa(lp1557
F4.93200871541
aF18.92599868774414
aa(lp1558
F18.0384780411
aF2.279320001602173
aa(lp1559
F10.1143208955
aF3.1859912872314453
aa(lp1560
F6.26606361535
aF13.063053131103516
aa(lp1561
F4.0602
aF21.963504791259766
aa(lp1562
F22.9176908339
aF1.4460999965667725
aa(lp1563
F34.4975235989
aF1.3519140481948853
aa(lp1564
F22.0212700276
aF1.5537835359573364
aa(lp1565
F6.2038698204
aF13.42305850982666
aa(lp1566
F4.83458932029
aF19.637819290161133
aa(lp1567
F13.8483687401
aF3.694204807281494
aa(lp1568
F34.1551185356
aF1.2719985246658325
aa(lp1569
F8.36809075365
aF7.737212181091309
aa(lp1570
F4.04
aF21.588333129882812
aa(lp1571
F34.3258941283
aF1.308515191078186
aa(lp1572
F26.221318382
aF1.1837235689163208
aa(lp1573
F27.7000914667
aF1.1174213886260986
aa(lp1574
F6.95796270485
aF11.417313575744629
aa(lp1575
F21.0546393417
aF1.6846613883972168
aa(lp1576
F4.95666875898
aF18.91431999206543
aa(lp1577
F4.100903505
aF22.54311752319336
aa(lp1578
F19.2468071556
aF1.9836323261260986
aa(lp1579
F29.7033934361
aF1.0844918489456177
aa(lp1580
F9.57436652283
aF3.4568827152252197
aa(lp1581
F26.3524249739
aF1.18070387840271
aa(lp1582
F6.02096781407
aF14.091639518737793
aa(lp1583
F16.8218992464
aF2.6340489387512207
aa(lp1584
F14.924147935
aF3.240309476852417
aa(lp1585
F14.6293590268
aF3.36639142036438
aa(lp1586
F34.6700112169
aF1.4130866527557373
aa(lp1587
F6.39232793415
aF12.651618003845215
aa(lp1588
F4.55372549587
aF21.290315628051758
aa(lp1589
F11.0093018225
aF4.673483848571777
aa(lp1590
F5.96120671674
aF14.348786354064941
aa(lp1591
F11.1752684237
aF4.911502361297607
aa(lp1592
F11.8055069921
aF5.018066883087158
aa(lp1593
F5.75667550757
aF15.06879711151123
aa(lp1594
F33.4804702979
aF1.1807212829589844
aa(lp1595
F8.28503329487
aF8.177265167236328
aa(lp1596
F14.8498984428
aF3.2619407176971436
aa(lp1597
F23.263177888
aF1.421693205833435
aa(lp1598
F8.40993120741
aF7.529501438140869
aa(lp1599
F6.55374222489
aF12.29161262512207
aa(lp1600
F30.758737092
aF1.0692307949066162
aa(lp1601
F13.7109167992
aF3.7950706481933594
aa(lp1602
F6.52113654218
aF12.29161262512207
aa(lp1603
F13.2404901683
aF4.059843063354492
aa(lp1604
F12.7225910938
aF4.333307266235352
aa(lp1605
F4.31062425173
aF22.841882705688477
aa(lp1606
F19.3430411913
aF1.965093731880188
aa(lp1607
F8.16199027128
aF8.794417381286621
aa(lp1608
F15.7658076851
aF2.9482924938201904
aa(lp1609
F7.72626132991
aF9.720145225524902
aa(lp1610
F12.8501350695
aF4.2615742683410645
aa(lp1611
F10.318129525
aF3.0826265811920166
aa(lp1612
F5.03139116011
aF18.24250030517578
aa(lp1613
F6.11173465649
aF13.93735122680664
aa(lp1614
F12.4712883893
aF4.460012435913086
aa(lp1615
F15.454393911
aF3.0335254669189453
aa(lp1616
F5.31514065423
aF16.743824005126953
aa(lp1617
F13.6427032828
aF3.858111619949341
aa(lp1618
F13.9871986367
aF3.6437721252441406
aa(lp1619
F17.506669038
aF2.4343106746673584
aa(lp1620
F4.59937659397
aF21.086030960083008
aa(lp1621
F14.4841553692
aF3.4420406818389893
aa(lp1622
F20.4339081063
aF1.7690593004226685
aa(lp1623
F23.4963912463
aF1.3972864151000977
aa(lp1624
F26.7496910745
aF1.1625856161117554
aa(lp1625
F33.8161120127
aF1.2201799154281616
aa(lp1626
F11.4574579554
aF5.1695051193237305
aa(lp1627
F33.148159994
aF1.1412627696990967
aa(lp1628
F21.1599125385
aF1.6742621660232544
aa(lp1629
F11.343736992
aF5.092431545257568
aa(lp1630
F11.2311447658
aF5.0015034675598145
aa(lp1631
F8.79603601972
aF5.098215579986572
aa(lp1632
F8.97328054903
aF3.8060121536254883
aa(lp1633
F7.20517492369
aF10.851591110229492
aa(lp1634
F31.5354337482
aF1.0842903852462769
aa(lp1635
F5.84345811043
aF14.708791732788086
aa(lp1636
F7.84273568524
aF9.575044631958008
aa(lp1637
F23.7319425685
aF1.375462532043457
aa(lp1638
F12.0433938681
aF4.79111909866333
aa(lp1639
F10.3697201726
aF3.0548837184906006
aa(lp1640
F9.19986712756
aF3.669147491455078
aa(lp1641
F5.08183085649
aF17.88075065612793
aa(lp1642
F6.92334597497
aF11.617908477783203
aa(lp1643
F11.5147452452
aF5.1695051193237305
aa(lp1644
F4.12140802252
aF22.75282096862793
aa(lp1645
F4.16272513795
aF22.951997756958008
aa(lp1646
F6.78659273385
aF11.777318954467773
aa(lp1647
F5.26238524217
aF16.92025375366211
aa(lp1648
F28.2582621771
aF1.0905001163482666
aa(lp1649
F16.4075871111
aF2.746401786804199
aa(lp1650
F12.5963130554
aF4.387656211853027
aa(lp1651
F8.49424076777
aF7.129915714263916
aa(lp1652
F10.7381500768
aF4.079033374786377
aa(lp1653
F22.1313763777
aF1.5354317426681519
aa(lp1654
F13.1090717243
aF4.110275745391846
aa(lp1655
F28.399553488
aF1.0935041904449463
aa(lp1656
F4.64548534432
aF20.57173728942871
aa(lp1657
F25.0703252313
aF1.2687442302703857
aa(lp1658
F7.46117044358
aF10.18301010131836
aa(lp1659
F14.4120948947
aF3.467257261276245
aa(lp1660
F18.3104103524
aF2.204791784286499
aa(lp1661
F5.53150431831
aF15.480232238769531
aa(lp1662
F20.3322468719
aF1.7875511646270752
aa(lp1663
F25.7033823597
aF1.2139205932617188
aa(lp1664
F4.57649412335
aF21.084815979003906
aa(lp1665
F16.0034792067
aF2.8587543964385986
aa(lp1666
F18.7727711591
aF2.087752342224121
aa(lp1667
F6.88890146764
aF11.669088363647461
aa(lp1668
F14.2690476916
aF3.5302982330322266
aa(lp1669
F6.14229332977
aF13.680205345153809
aa(lp1670
F24.8214897961
aF1.2897099256515503
aa(lp1671
F9.2458664632
aF3.6537716388702393
aa(lp1672
F11.0643483316
aF4.777338981628418
aa(lp1673
F4.85876226689
aF19.327747344970703
aa(lp1674
F25.1956768574
aF1.2566031217575073
aa(lp1675
F20.1304392188
aF1.8245350122451782
aa(lp1676
F10.2667955473
aF3.112700939178467
aa(lp1677
F5.10724001077
aF17.984107971191406
aa(lp1678
F4.48609702249
aF21.601600646972656
aa(lp1679
F27.9777848836
aF1.102361798286438
aa(lp1680
F18.5864420773
aF2.143508195877075
aa(lp1681
F6.4886930768
aF12.394471168518066
aa(lp1682
F6.3288809031
aF12.908764839172363
aa(lp1683
F7.09816913668
aF11.106106758117676
aa(lp1684
F12.2249495361
aF4.660194396972656
aa(lp1685
F24.4528598768
aF1.3112380504608154
aa(lp1686
F8.53671197161
aF6.821410179138184
aa(lp1687
F11.9834764857
aF4.841551780700684
aa(lp1688
F9.96411068144
aF3.261488676071167
aa(lp1689
F4.76278967065
aF19.896211624145508
aa(lp1690
F14.0571346299
aF3.6185555458068848
aa(lp1691
F8.66540397167
aF5.957535266876221
aa(lp1692
F11.400455677
aF5.118574142456055
aa(lp1693
F12.2860742838
aF4.586717128753662
aa(lp1694
F20.5360776468
aF1.7628953456878662
aa(lp1695
F22.5773346913
aF1.4827101230621338
aa(lp1696
F4.20445645746
aF23.36741828918457
aa(lp1697
F13.5072926737
aF3.9211525917053223
aa(lp1698
F10.4736766174
aF3.0099589824676514
aa(lp1699
F7.38711461952
aF10.337297439575195
aa(lp1700
F8.00077073557
aF9.314799308776855
aa(lp1701
F5.61489243735
aF15.325943946838379
aa(lp1702
F11.5723189714
aF5.220241546630859
aa(lp1703
F7.96096590604
aF9.365979194641113
aa(lp1704
F25.9610587679
aF1.198822021484375
aa(lp1705
F21.2657121011
aF1.6600677967071533
aa(lp1706
F25.3216552417
aF1.2412700653076172
aa(lp1707
F14.3403929301
aF3.492473602294922
aa(lp1708
F15.3775063791
aF3.073751926422119
aa(lp1709
F6.65254070815
aF12.085895538330078
aa(lp1710
F12.4092421784
aF4.51069450378418
aa(lp1711
F18.4939722162
aF2.1558985710144043
aa(lp1712
F23.6138732025
aF1.3850830793380737
aa(lp1713
F5.13277621083
aF17.759239196777344
aa(lp1714
F4.6920563349
aF20.46467399597168
aa(lp1715
F19.0557730309
aF2.031996250152588
aa(lp1716
F32.1708885256
aF1.1021915674209595
aa(lp1717
F9.76729480144
aF3.352085590362549
aa(lp1718
F4.88305607822
aF19.224390029907227
aa(lp1719
F5.50398439633
aF15.583090782165527
aa(lp1720
F20.9498898923
aF1.6987935304641724
aa(lp1721
F31.0670934313
aF1.0842903852462769
aa(lp1722
F6.82052569752
aF11.777318954467773
aa(lp1723
F22.3532434259
aF1.5048454999923706
aa(lp1724
F20.7419518252
aF1.7338485717773438
aa(lp1725
F5.64296689953
aF15.171655654907227
aa(lp1726
F29.1166778018
aF1.0724753141403198
aa(lp1727
F9.06323768653
aF3.7603399753570557
aa(lp1728
F5.4222433993
aF16.04595375061035
aa(lp1729
F17.6821733951
aF2.378134250640869
aa(lp1730
F10.5260450004
aF3.300983428955078
aa(lp1731
F19.5369551793
aF1.9341959953308105
aa(lp1732
F29.5556153593
aF1.0784835815429688
aa(lp1733
F27.838591924
aF1.108385682106018
aa(lp1734
F14.556576146
aF3.4042160511016846
aa(lp1735
F10.6847264446
aF3.9317636489868164
aa(lp1736
F9.43217530115
aF3.5332794189453125
aa(lp1737
F6.17300479642
aF13.4744873046875
aa(lp1738
F30.6057085492
aF1.0724753141403198
aa(lp1739
F32.0108343538
aF1.0961521863937378
aa(lp1740
F14.1274203031
aF3.593339204788208
aa(lp1741
F8.84001619982
aF4.808573246002197
aa(lp1742
F15.9238599072
aF2.898108959197998
aa(lp1743
F16.3259573245
aF2.771368980407715
aa(lp1744
F12.7862040493
aF4.274182319641113
aa(lp1745
F10.9000290315
aF4.482410430908203
aa(lp1746
F16.4896250466
aF2.7339179515838623
aa(lp1747
F7.92135911049
aF9.422250747680664
aa(lp1748
F31.8515764715
aF1.0903141498565674
aa(lp1749
F8.1213833545
aF8.956537246704102
aa(lp1750
F18.6793742877
aF2.118727922439575
aa(lp1751
F7.76489263656
aF9.668716430664062
aatp1752
Rp1753
aa(lp1754
S'up2'
p1755
ag0
((lp1756
(lp1757
F6.6194434907
aF19.679866790771484
aa(lp1758
F4.62237347694
aF34.043495178222656
aa(lp1759
F17.7705842621
aF3.6698834896087646
aa(lp1760
F23.9698552928
aF2.0859525203704834
aa(lp1761
F34.843361273
aF2.2769393920898438
aa(lp1762
F5.78545888511
aF24.21436882019043
aa(lp1763
F12.3475046552
aF7.266844272613525
aa(lp1764
F27.0178567275
aF1.7257980108261108
aa(lp1765
F13.4400922127
aF6.338303089141846
aa(lp1766
F28.8276803068
aF1.6382498741149902
aa(lp1767
F24.2101530921
aF2.0562987327575684
aa(lp1768
F15.1491313306
aF5.002871036529541
aa(lp1769
F13.3732260823
aF6.318117618560791
aa(lp1770
F33.313900794
aF1.7654904127120972
aa(lp1771
F13.5748291371
aF6.257560729980469
aa(lp1772
F7.16932828228
aF17.61837387084961
aa(lp1773
F13.7794713832
aF6.0094757080078125
aa(lp1774
F8.04077458925
aF14.851593971252441
aa(lp1775
F26.8834395298
aF1.754708170890808
aa(lp1776
F4.33217737299
aF37.03374099731445
aa(lp1777
F7.42405019262
aF16.690521240234375
aa(lp1778
F30.4534413425
aF1.6382498741149902
aa(lp1779
F22.2420332596
aF2.363729476928711
aa(lp1780
F29.8519104033
aF1.6565033197402954
aa(lp1781
F8.57939553147
aF10.883368492126465
aa(lp1782
F8.75227464648
aF9.23419189453125
aa(lp1783
F17.8594371834
aF3.628819465637207
aa(lp1784
F10.1648924999
aF4.974595546722412
aa(lp1785
F7.24120079831
aF17.285951614379883
aa(lp1786
F14.7025058219
aF5.303043365478516
aa(lp1787
F14.776018351
aF5.243009090423584
aa(lp1788
F7.02771628096
aF18.20011329650879
aa(lp1789
F15.2248769873
aF4.934032917022705
aa(lp1790
F8.92863736222
aF6.58474063873291
aa(lp1791
F24.0897045692
aF2.065688133239746
aa(lp1792
F20.6387580351
aF2.712355852127075
aa(lp1793
F8.24381422375
aF13.58775520324707
aa(lp1794
F9.71870129496
aF5.306344509124756
aa(lp1795
F6.29739393343
aF21.108806610107422
aa(lp1796
F16.7382082054
aF4.178496837615967
aa(lp1797
F9.62223835545
aF5.377411365509033
aa(lp1798
F23.1474406845
aF2.2081027030944824
aa(lp1799
F5.99101275032
aF23.020233154296875
aa(lp1800
F30.0011699553
aF1.6477895975112915
aa(lp1801
F22.6902213647
aF2.267491340637207
aa(lp1802
F10.5786752254
aF5.943994045257568
aa(lp1803
F21.5862953693
aF2.488826274871826
aa(lp1804
F9.67034954722
aF5.330142974853516
aa(lp1805
F19.8314772207
aF2.9303550720214844
aa(lp1806
F17.1608689377
aF3.9839742183685303
aa(lp1807
F7.80371709974
aF15.435659408569336
aa(lp1808
F10.7918408272
aF7.108083724975586
aa(lp1809
F26.4841870988
aF1.7868624925613403
aa(lp1810
F7.35036280549
aF17.03663444519043
aa(lp1811
F7.88194936367
aF15.3587064743042
aa(lp1812
F9.01814695177
aF5.898812770843506
aa(lp1813
F31.3785410429
aF1.643180012702942
aa(lp1814
F18.96096819
aF3.2116024494171143
aa(lp1815
F15.073762518
aF5.04086971282959
aa(lp1816
F4.28917835993
aF37.3881721496582
aa(lp1817
F21.478900865
aF2.517324209213257
aa(lp1818
F7.61151676327
aF15.873157501220703
aa(lp1819
F9.91453799148
aF5.140521049499512
aa(lp1820
F15.687370831
aF4.71085262298584
aa(lp1821
F4.98145210278
aF30.35405158996582
aa(lp1822
F5.05654811591
aF29.26399040222168
aa(lp1823
F8.45198086345
aF11.979317665100098
aa(lp1824
F5.93154897188
aF23.448366165161133
aa(lp1825
F23.0322792881
aF2.217499017715454
aa(lp1826
F30.151175805
aF1.6464817523956299
aa(lp1827
F28.1176738081
aF1.6739994287490845
aa(lp1828
F12.1641288916
aF7.476082801818848
aa(lp1829
F4.78660361901
aF32.34168243408203
aa(lp1830
F16.2447336562
aF4.413949966430664
aa(lp1831
F24.5751241762
aF1.9977917671203613
aa(lp1832
F17.0754914803
aF4.0215582847595215
aa(lp1833
F23.3794937774
aF2.170518159866333
aa(lp1834
F6.36052530761
aF20.85948944091797
aa(lp1835
F4.37560745116
aF36.875057220458984
aa(lp1836
F4.39748548841
aF36.53102111816406
aa(lp1837
F8.88421628081
aF7.34179162979126
aa(lp1838
F17.5942023832
aF3.759387493133545
aa(lp1839
F28.6842590117
aF1.6510679721832275
aa(lp1840
F7.68782221882
aF15.748498916625977
aa(lp1841
F9.15409664434
aF5.780243873596191
aa(lp1842
F5.67118173403
aF24.61661148071289
aa(lp1843
F10.8458000313
aF7.286595344543457
aa(lp1844
F4.18353876364
aF37.70684814453125
aa(lp1845
F8.20280022263
aF13.920177459716797
aa(lp1846
F15.5316658805
aF4.770233154296875
aa(lp1847
F5.47660138938
aF25.638744354248047
aa(lp1848
F21.6942268461
aF2.4603281021118164
aa(lp1849
F10.9545291766
aF7.528550148010254
aa(lp1850
F22.8036724716
aF2.247286558151245
aa(lp1851
F4.26783916411
aF37.557350158691406
aa(lp1852
F4.73909419965
aF32.67683029174805
aa(lp1853
F14.9987686747
aF5.082917213439941
aa(lp1854
F6.58651093602
aF19.696012496948242
aa(lp1855
F32.9832437751
aF1.7223899364471436
aa(lp1856
F6.85462832601
aF18.858680725097656
aa(lp1857
F17.2466732824
aF3.9430887699127197
aa(lp1858
F13.9176105838
aF5.868785858154297
aa(lp1859
F6.75282859089
aF19.09860610961914
aa(lp1860
F5.36842493929
aF26.644184112548828
aa(lp1861
F27.2887107412
aF1.716618299484253
aa(lp1862
F5.15844009188
aF28.48749351501465
aa(lp1863
F5.39526706398
aF26.476612091064453
aa(lp1864
F21.3720406616
aF2.5458221435546875
aa(lp1865
F19.6346399552
aF2.978393793106079
aa(lp1866
F19.1510518961
aF3.136979103088379
aa(lp1867
F27.5622800663
aF1.6936688423156738
aa(lp1868
F32.3317429682
aF1.6941766738891602
aa(lp1869
F20.2310914149
aF2.8228461742401123
aa(lp1870
F4.53107014514
aF34.68133544921875
aa(lp1871
F8.70873099153
aF9.698378562927246
aa(lp1872
F27.1529460111
aF1.7133668661117554
aa(lp1873
F10.064000891
aF5.045661449432373
aa(lp1874
F12.6592946207
aF6.964059352874756
aa(lp1875
F5.23620422107
aF27.838523864746094
aa(lp1876
F15.3010013722
aF4.908787250518799
aa(lp1877
F4.46377813183
aF35.52558135986328
aa(lp1878
F13.1746170829
aF6.5062127113342285
aa(lp1879
F12.5336448313
aF7.105359077453613
aa(lp1880
F32.6558686915
aF1.7084622383117676
aa(lp1881
F24.9455972451
aF1.9606235027313232
aa(lp1882
F7.13365998236
aF17.784584045410156
aa(lp1883
F24.6979997971
aF1.988499641418457
aa(lp1884
F26.0908640617
aF1.8188164234161377
aa(lp1885
F9.81613127544
aF5.211695194244385
aa(lp1886
F27.4251542949
aF1.7028485536575317
aa(lp1887
F5.4493546163
aF25.890104293823242
aa(lp1888
F33.6478726494
aF1.845487356185913
aa(lp1889
F25.8318992715
aF1.846514105796814
aa(lp1890
F9.86521193182
aF5.187899112701416
aa(lp1891
F19.4397563973
aF3.040456771850586
aa(lp1892
F4.14201506264
aF37.71141052246094
aa(lp1893
F20.8456615844
aF2.6598143577575684
aa(lp1894
F18.8666350149
aF3.240710496902466
aa(lp1895
F32.4934016831
aF1.69326913356781
aa(lp1896
F25.4482635179
aF1.8862870931625366
aa(lp1897
F16.6549335377
aF4.198114395141602
aa(lp1898
F7.31379383631
aF17.119741439819336
aa(lp1899
F6.08132801641
aF22.604705810546875
aa(lp1900
F6.68580341169
aF19.363590240478516
aa(lp1901
F17.3329066488
aF3.8842365741729736
aa(lp1902
F6.42428957382
aF20.360857009887695
aa(lp1903
F10.0139312348
aF5.069453716278076
aa(lp1904
F9.38524905587
aF5.567038059234619
aa(lp1905
F5.6995376427
aF24.80087661743164
aa(lp1906
F5.5591618399
aF25.052236557006836
aa(lp1907
F4.71551661657
aF33.09576416015625
aa(lp1908
F17.9487343693
aF3.590008497238159
aa(lp1909
F14.1980574046
aF5.60321569442749
aa(lp1910
F18.1286704313
aF3.5242533683776855
aa(lp1911
F17.4195711821
aF3.842668294906616
aa(lp1912
F11.7467731264
aF8.130682945251465
aa(lp1913
F4.8105366371
aF31.83896255493164
aa(lp1914
F11.6883314691
aF8.195385932922363
aa(lp1915
F32.819148035
aF1.7131048440933228
aa(lp1916
F30.3019316841
aF1.6418954133987427
aa(lp1917
F7.53596867728
aF16.247133255004883
aa(lp1918
F18.4019624042
aF3.4174575805664062
aa(lp1919
F16.5720731719
aF4.237349033355713
aa(lp1920
F7.57364852066
aF15.956262588500977
aa(lp1921
F10.2157169624
aF4.927319526672363
aa(lp1922
F16.9060087427
aF4.100027561187744
aa(lp1923
F23.8506022814
aF2.1032462120056152
aa(lp1924
F28.9718187083
aF1.6464817523956299
aa(lp1925
F33.9851925727
aF1.924845814704895
aa(lp1926
F30.9125307774
aF1.643180012702942
aa(lp1927
F4.50852750761
aF34.85450744628906
aa(lp1928
F5.87267540098
aF23.795434951782227
aa(lp1929
F22.4650096431
aF2.3147308826446533
aa(lp1930
F9.33855627449
aF5.61441707611084
aa(lp1931
F5.90203877799
aF23.685077667236328
aa(lp1932
F11.1196700733
aF7.881991386413574
aa(lp1933
F4.24660613344
aF37.72652816772461
aa(lp1934
F11.9238571997
aF7.872415065765381
aa(lp1935
F9.29209579552
aF5.6382222175598145
aa(lp1936
F7.64957434708
aF15.79005241394043
aa(lp1937
F5.2101534538
aF27.838523864746094
aa(lp1938
F4.66871277104
aF33.204986572265625
aa(lp1939
F7.4984762958
aF16.288684844970703
aa(lp1940
F6.05107265314
aF22.854022979736328
aa(lp1941
F13.3066926192
aF6.419045925140381
aa(lp1942
F5.18423229234
aF28.25777816772461
aa(lp1943
F9.52673285854
aF5.448590278625488
aa(lp1944
F29.4085724968
aF1.647376537322998
aa(lp1945
F12.9789576736
aF6.688063144683838
aa(lp1946
F28.5415512554
aF1.6556543111801147
aa(lp1947
F29.2622611908
aF1.6418954133987427
aa(lp1948
F4.41947291585
aF36.36344909667969
aa(lp1949
F5.28869716839
aF27.482051849365234
aa(lp1950
F4.35383825986
aF36.72672653198242
aa(lp1951
F8.32645846134
aF12.881013870239258
aa(lp1952
F26.6166080343
aF1.78226900100708
aa(lp1953
F10.6315686016
aF6.3460540771484375
aa(lp1954
F16.0834966027
aF4.473330497741699
aa(lp1955
F15.8446367235
aF4.631678581237793
aa(lp1956
F20.0302877799
aF2.870853900909424
aa(lp1957
F11.2873004896
aF8.111702919006348
aa(lp1958
F6.99275251837
aF18.366323471069336
aa(lp1959
F18.2193137835
aF3.4757096767425537
aa(lp1960
F6.45641102169
aF20.194644927978516
aa(lp1961
F15.6093242099
aF4.716063499450684
aa(lp1962
F19.732813155
aF2.9591784477233887
aa(lp1963
F10.4215687735
aF4.7850871086120605
aa(lp1964
F4.080501
aF36.924354553222656
aa(lp1965
F4.44157028043
aF35.865577697753906
aa(lp1966
F31.2224288985
aF1.6556543111801147
aa(lp1967
F21.9117114703
aF2.420686960220337
aa(lp1968
F4.90747135861
aF31.168668746948242
aa(lp1969
F11.6301805663
aF8.284307479858398
aa(lp1970
F7.06285486237
aF18.117006301879883
aa(lp1971
F7.2774068023
aF17.285951614379883
aa(lp1972
F5.72803533091
aF24.433027267456055
aa(lp1973
F9.10855387497
aF5.804052352905273
aa(lp1974
F6.2348891695
aF21.358123779296875
aa(lp1975
F16.1639140858
aF4.4535369873046875
aa(lp1976
F8.08097846219
aF14.728174209594727
aa(lp1977
F24.3312038575
aF2.016375780105591
aa(lp1978
F6.71923242875
aF19.114273071289062
aa(lp1979
F8.62229250912
aF10.48442268371582
aa(lp1980
F4.22547873975
aF38.06488037109375
aa(lp1981
F5.5869576491
aF25.11728858947754
aa(lp1982
F12.1036108374
aF7.630186557769775
aa(lp1983
F31.6931109169
aF1.6536517143249512
aa(lp1984
F11.864534527
aF7.993528842926025
aa(lp1985
F19.9306346068
aF2.899658441543579
aa(lp1986
F16.9905387864
aF4.080410003662109
aa(lp1987
F12.9143857449
aF6.7284746170043945
aa(lp1988
F13.043852462
aF6.641088485717773
aa(lp1989
F5.00635936329
aF29.995655059814453
aa(lp1990
F5.81438617953
aF23.879222869873047
aa(lp1991
F9.47933617765
aF5.495856761932373
aa(lp1992
F5.3417163575
aF26.895545959472656
aa(lp1993
F25.5755048355
aF1.8769950866699219
aa(lp1994
F21.8026979804
aF2.4396727085113525
aa(lp1995
F4.93200871541
aF30.83352279663086
aa(lp1996
F18.0384780411
aF3.5630879402160645
aa(lp1997
F10.1143208955
aF4.998386859893799
aa(lp1998
F6.26606361535
aF21.108806610107422
aa(lp1999
F4.0602
aF36.43297576904297
aa(lp2000
F22.9176908339
aF2.2268950939178467
aa(lp2001
F34.4975235989
aF2.0780348777770996
aa(lp2002
F22.0212700276
aF2.41119384765625
aa(lp2003
F6.2038698204
aF21.6905460357666
aa(lp2004
F4.83458932029
aF31.863370895385742
aa(lp2005
F13.8483687401
aF5.914403915405273
aa(lp2006
F34.1551185356
aF1.9624037742614746
aa(lp2007
F8.36809075365
aF12.603705406188965
aa(lp2008
F4.04
aF36.058509826660156
aa(lp2009
F34.3258941283
aF2.018740653991699
aa(lp2010
F26.221318382
aF1.8095839023590088
aa(lp2011
F27.7000914667
aF1.7028485536575317
aa(lp2012
F6.95796270485
aF18.44942855834961
aa(lp2013
F21.0546393417
aF2.6045846939086914
aa(lp2014
F4.95666875898
aF30.689456939697266
aa(lp2015
F4.100903505
aF37.28367233276367
aa(lp2016
F19.2468071556
aF3.098370313644409
aa(lp2017
F29.7033934361
aF1.6556543111801147
aa(lp2018
F9.57436652283
aF5.401211261749268
aa(lp2019
F26.3524249739
aF1.7960494756698608
aa(lp2020
F6.02096781407
aF22.770917892456055
aa(lp2021
F16.8218992464
aF4.1392621994018555
aa(lp2022
F14.924147935
aF5.142951488494873
aa(lp2023
F14.6293590268
aF5.343066215515137
aa(lp2024
F34.6700112169
aF2.1824605464935303
aa(lp2025
F6.39232793415
aF20.44396209716797
aa(lp2026
F4.55372549587
aF34.54328536987305
aa(lp2027
F11.0093018225
aF7.673584461212158
aa(lp2028
F5.96120671674
aF23.376501083374023
aa(lp2029
F11.1752684237
aF7.936578750610352
aa(lp2030
F11.8055069921
aF8.033900260925293
aa(lp2031
F5.75667550757
aF24.449718475341797
aa(lp2032
F33.4804702979
aF1.8073046207427979
aa(lp2033
F8.28503329487
aF13.322092056274414
aa(lp2034
F14.8498984428
aF5.197546005249023
aa(lp2035
F23.263177888
aF2.1893105506896973
aa(lp2036
F8.40993120741
aF12.362997055053711
aa(lp2037
F6.55374222489
aF19.86222267150879
aa(lp2038
F30.758737092
aF1.6294103860855103
aa(lp2039
F13.7109167992
aF6.075889587402344
aa(lp2040
F6.52113654218
aF19.86222267150879
aa(lp2041
F13.2404901683
aF6.499788761138916
aa(lp2042
F12.7225910938
aF6.910325050354004
aa(lp2043
F4.31062425173
aF37.062129974365234
aa(lp2044
F19.3430411913
aF3.05525541305542
aa(lp2045
F8.16199027128
aF14.211047172546387
aa(lp2046
F15.7658076851
aF4.656617641448975
aa(lp2047
F7.72626132991
aF15.642572402954102
aa(lp2048
F12.8501350695
aF6.822759628295898
aa(lp2049
F10.318129525
aF4.8561530113220215
aa(lp2050
F5.03139116011
aF29.599393844604492
aa(lp2051
F6.11173465649
aF22.5216007232666
aa(lp2052
F12.4712883893
aF7.112381458282471
aa(lp2053
F15.454393911
aF4.80981969833374
aa(lp2054
F5.31514065423
aF27.167715072631836
aa(lp2055
F13.6427032828
aF6.150166034698486
aa(lp2056
F13.9871986367
aF5.80849027633667
aa(lp2057
F17.506669038
aF3.808210849761963
aa(lp2058
F4.59937659397
aF34.35256576538086
aa(lp2059
F14.4841553692
aF5.463135242462158
aa(lp2060
F20.4339081063
aF2.7556357383728027
aa(lp2061
F23.4963912463
aF2.1517257690429688
aa(lp2062
F26.7496910745
aF1.7684886455535889
aa(lp2063
F33.8161120127
aF1.8768230676651
aa(lp2064
F11.4574579554
aF8.28151798248291
aa(lp2065
F33.148159994
aF1.7469062805175781
aa(lp2066
F21.1599125385
aF2.5933189392089844
aa(lp2067
F11.343736992
aF8.194055557250977
aa(lp2068
F11.2311447658
aF8.082013130187988
aa(lp2069
F8.79603601972
aF8.713984489440918
aa(lp2070
F8.97328054903
aF5.922502517700195
aa(lp2071
F7.20517492369
aF17.535268783569336
aa(lp2072
F31.5354337482
aF1.6523598432540894
aa(lp2073
F5.84345811043
aF23.865596771240234
aa(lp2074
F7.84273568524
aF15.468696594238281
aa(lp2075
F23.7319425685
aF2.12202525138855
aa(lp2076
F12.0433938681
aF7.670557975769043
aa(lp2077
F10.3697201726
aF4.832365036010742
aa(lp2078
F9.19986712756
aF5.732864856719971
aa(lp2079
F5.08183085649
aF29.01243782043457
aa(lp2080
F6.92334597497
aF18.7717342376709
aa(lp2081
F11.5147452452
aF8.28151798248291
aa(lp2082
F4.12140802252
aF37.341609954833984
aa(lp2083
F4.16272513795
aF37.68582534790039
aa(lp2084
F6.78659273385
aF19.03116798400879
aa(lp2085
F5.26238524217
aF27.565839767456055
aa(lp2086
F28.2582621771
aF1.6648268699645996
aa(lp2087
F16.4075871111
aF4.335194110870361
aa(lp2088
F12.5963130554
aF7.024616241455078
aa(lp2089
F8.49424076777
aF11.701518058776855
aa(lp2090
F10.7381500768
aF6.878262996673584
aa(lp2091
F22.1313763777
aF2.3827152252197266
aa(lp2092
F13.1090717243
aF6.580531597137451
aa(lp2093
F28.399553488
aF1.6694132089614868
aa(lp2094
F4.64548534432
aF33.51469802856445
aa(lp2095
F25.0703252313
aF1.9420393705368042
aa(lp2096
F7.46117044358
aF16.454896926879883
aa(lp2097
F14.4120948947
aF5.503158092498779
aa(lp2098
F18.3104103524
aF3.4465837478637695
aa(lp2099
F5.53150431831
aF25.219810485839844
aa(lp2100
F20.3322468719
aF2.784440279006958
aa(lp2101
F25.7033823597
aF1.8557467460632324
aa(lp2102
F4.57649412335
aF34.21119689941406
aa(lp2103
F16.0034792067
aF4.532711029052734
aa(lp2104
F18.7727711591
aF3.2698187828063965
aa(lp2105
F6.88890146764
aF18.854429244995117
aa(lp2106
F14.2690476916
aF5.60321569442749
aa(lp2107
F6.14229332977
aF22.1060733795166
aa(lp2108
F24.8214897961
aF1.9777307510375977
aa(lp2109
F9.2458664632
aF5.68560266494751
aa(lp2110
F11.0643483316
aF7.782153606414795
aa(lp2111
F4.85876226689
aF31.36026382446289
aa(lp2112
F25.1956768574
aF1.9234552383422852
aa(lp2113
F20.1304392188
aF2.8420493602752686
aa(lp2114
F10.2667955473
aF4.903530120849609
aa(lp2115
F5.10724001077
aF29.180139541625977
aa(lp2116
F4.48609702249
aF35.19126510620117
aa(lp2117
F27.9777848836
aF1.6798990964889526
aa(lp2118
F18.5864420773
aF3.3571431636810303
aa(lp2119
F6.4886930768
aF20.02843475341797
aa(lp2120
F6.3288809031
aF20.85948944091797
aa(lp2121
F7.09816913668
aF18.019119262695312
aa(lp2122
F12.2249495361
aF7.402561664581299
aa(lp2123
F24.4528598768
aF2.0070838928222656
aa(lp2124
F8.53671197161
aF11.234755516052246
aa(lp2125
F11.9834764857
aF7.751300811767578
aa(lp2126
F9.96411068144
aF5.1168317794799805
aa(lp2127
F4.76278967065
aF32.282623291015625
aa(lp2128
F14.0571346299
aF5.793289661407471
aa(lp2129
F8.66540397167
aF10.010021209716797
aa(lp2130
F11.400455677
aF8.269169807434082
aa(lp2131
F12.2860742838
aF7.314437389373779
aa(lp2132
F20.5360776468
aF2.7460341453552246
aa(lp2133
F22.5773346913
aF2.2832722663879395
aa(lp2134
F4.20445645746
aF38.06488037109375
aa(lp2135
F13.5072926737
aF6.277746200561523
aa(lp2136
F10.4736766174
aF4.761301040649414
aa(lp2137
F7.38711461952
aF16.704212188720703
aa(lp2138
F8.00077073557
aF14.988121032714844
aa(lp2139
F5.61489243735
aF24.96845054626465
aa(lp2140
F11.5723189714
aF8.324719429016113
aa(lp2141
F7.96096590604
aF15.070473670959473
aa(lp2142
F25.9610587679
aF1.832665205001831
aa(lp2143
F21.2657121011
aF2.566561698913574
aa(lp2144
F25.3216552417
aF1.9034497737884521
aa(lp2145
F14.3403929301
aF5.543181419372559
aa(lp2146
F15.3775063791
aF4.854771614074707
aa(lp2147
F6.65254070815
aF19.529800415039062
aa(lp2148
F12.4092421784
aF7.193203926086426
aa(lp2149
F18.4939722162
aF3.3765487670898438
aa(lp2150
F23.6138732025
aF2.1329333782196045
aa(lp2151
F5.13277621083
aF28.698999404907227
aa(lp2152
F4.6920563349
aF33.204986572265625
aa(lp2153
F19.0557730309
aF3.1824941635131836
aa(lp2154
F32.1708885256
aF1.676619052886963
aa(lp2155
F9.76729480144
aF5.258966445922852
aa(lp2156
F4.88305607822
aF31.192562103271484
aa(lp2157
F5.50398439633
aF25.38738441467285
aa(lp2158
F20.9498898923
aF2.6313161849975586
aa(lp2159
F31.0670934313
aF1.6523598432540894
aa(lp2160
F6.82052569752
aF19.03116798400879
aa(lp2161
F22.3532434259
aF2.3352508544921875
aa(lp2162
F20.7419518252
aF2.6932547092437744
aa(lp2163
F5.64296689953
aF24.717090606689453
aa(lp2164
F29.1166778018
aF1.6291230916976929
aa(lp2165
F9.06323768653
aF5.8514323234558105
aa(lp2166
F5.4222433993
aF26.141464233398438
aa(lp2167
F17.6821733951
aF3.7035515308380127
aa(lp2168
F10.5260450004
aF5.4471354484558105
aa(lp2169
F19.5369551793
aF3.0072169303894043
aa(lp2170
F29.5556153593
aF1.6382498741149902
aa(lp2171
F27.838591924
aF1.6890789270401
aa(lp2172
F14.556576146
aF5.403100967407227
aa(lp2173
F10.6847264446
aF6.682308197021484
aa(lp2174
F9.43217530115
aF5.543234825134277
aa(lp2175
F6.17300479642
aF21.773651123046875
aa(lp2176
F30.6057085492
aF1.6373090744018555
aa(lp2177
F32.0108343538
aF1.667432188987732
aa(lp2178
F14.1274203031
aF5.703272819519043
aa(lp2179
F8.84001619982
aF8.146016120910645
aa(lp2180
F15.9238599072
aF4.577355861663818
aa(lp2181
F16.3259573245
aF4.37460470199585
aa(lp2182
F12.7862040493
aF6.842945098876953
aa(lp2183
F10.9000290315
aF7.413381099700928
aa(lp2184
F16.4896250466
aF4.296201229095459
aa(lp2185
F7.92135911049
aF15.221856117248535
aa(lp2186
F31.8515764715
aF1.6615395545959473
aa(lp2187
F8.1213833545
aF14.41165542602539
aa(lp2188
F18.6793742877
aF3.3183324337005615
aa(lp2189
F7.76489263656
aF15.623841285705566
aatp2190
Rp2191
aa(lp2192
S'obs'
p2193
ag0
((lp2194
(lp2195
F6.6194434907
aF9.001768410820839
aa(lp2196
F4.62237347694
aF11.119262865753164
aa(lp2197
F17.7705842621
aF2.5400068313947264
aa(lp2198
F23.9698552928
aF0.7057206624668508
aa(lp2199
F34.843361273
aF1.0485807781668082
aa(lp2200
F5.78545888511
aF5.984415182702382
aa(lp2201
F12.3475046552
aF6.159975250922826
aa(lp2202
F27.0178567275
aF0.3977774202296126
aa(lp2203
F13.4400922127
aF1.6728547419136588
aa(lp2204
F28.8276803068
aF0.4007126471492609
aa(lp2205
F24.2101530921
aF0.9432851470274656
aa(lp2206
F15.1491313306
aF1.6533613424017317
aa(lp2207
F13.3732260823
aF2.5050279549013643
aa(lp2208
F33.313900794
aF0.8203026124814644
aa(lp2209
F13.5748291371
aF1.920056529586254
aa(lp2210
F7.16932828228
aF3.5343451453482726
aa(lp2211
F13.7794713832
aF1.8508912618937923
aa(lp2212
F8.04077458925
aF5.4591768656440385
aa(lp2213
F26.8834395298
aF0.48510825563944104
aa(lp2214
F4.33217737299
aF19.729859319026144
aa(lp2215
F7.42405019262
aF3.3458736863459855
aa(lp2216
F30.4534413425
aF0.6516850160245141
aa(lp2217
F22.2420332596
aF0.5885596072813365
aa(lp2218
F29.8519104033
aF0.7061422959400923
aa(lp2219
F8.57939553147
aF6.038062161321802
aa(lp2220
F8.75227464648
aF4.939382267808485
aa(lp2221
F17.8594371834
aF2.193208098061713
aa(lp2222
F10.1648924999
aF1.5267973827067642
aa(lp2223
F7.24120079831
aF3.4748644348627455
aa(lp2224
F14.7025058219
aF1.8600329256683055
aa(lp2225
F14.776018351
aF1.8287137139884373
aa(lp2226
F7.02771628096
aF4.498539384994822
aa(lp2227
F15.2248769873
aF1.6329974280925619
aa(lp2228
F8.92863736222
aF3.6134396318315574
aa(lp2229
F24.0897045692
aF0.6954151525879709
aa(lp2230
F20.6387580351
aF0.9965694608114568
aa(lp2231
F8.24381422375
aF6.851341043867558
aa(lp2232
F9.71870129496
aF1.6414119958517304
aa(lp2233
F6.29739393343
aF9.988166227599807
aa(lp2234
F16.7382082054
aF2.193698846454492
aa(lp2235
F9.62223835545
aF1.6678019519255687
aa(lp2236
F23.1474406845
aF1.14356975826043
aa(lp2237
F5.99101275032
aF6.133309974491793
aa(lp2238
F30.0011699553
aF0.7104347575566364
aa(lp2239
F22.6902213647
aF0.6858930092290219
aa(lp2240
F10.5786752254
aF1.5529872020793711
aa(lp2241
F21.5862953693
aF0.7296848360008632
aa(lp2242
F9.67034954722
aF1.6545245605833427
aa(lp2243
F19.8314772207
aF1.5593716427730315
aa(lp2244
F17.1608689377
aF2.0497849747149317
aa(lp2245
F7.80371709974
aF4.561683576189035
aa(lp2246
F10.7918408272
aF3.2246481043652433
aa(lp2247
F26.4841870988
aF0.6128953471905867
aa(lp2248
F7.35036280549
aF3.4040125612587695
aa(lp2249
F7.88194936367
aF4.426859635231679
aa(lp2250
F9.01814695177
aF1.8475977786834377
aa(lp2251
F31.3785410429
aF0.6879487297727904
aa(lp2252
F18.96096819
aF1.6258726269154085
aa(lp2253
F15.073762518
aF1.4307491922655142
aa(lp2254
F4.28917835993
aF20.18287906589189
aa(lp2255
F21.478900865
aF0.7429206983013702
aa(lp2256
F7.61151676327
aF3.829960310235195
aa(lp2257
F9.91453799148
aF1.5894878029011914
aa(lp2258
F15.687370831
aF1.7486253195602959
aa(lp2259
F4.98145210278
aF7.448822661339552
aa(lp2260
F5.05654811591
aF9.278795362569305
aa(lp2261
F8.45198086345
aF5.8232362627798295
aa(lp2262
F5.93154897188
aF4.744264490469209
aa(lp2263
F23.0322792881
aF1.171149088829431
aa(lp2264
F30.151175805
aF0.6458764760777058
aa(lp2265
F28.1176738081
aF0.4030959356765387
aa(lp2266
F12.1641288916
aF8.572347813334344
aa(lp2267
F4.78660361901
aF10.539856836524432
aa(lp2268
F16.2447336562
aF1.3595599551304374
aa(lp2269
F24.5751241762
aF1.0032457855956491
aa(lp2270
F17.0754914803
aF2.072727605993972
aa(lp2271
F23.3794937774
aF1.0995353860946964
aa(lp2272
F6.36052530761
aF9.885375797113392
aa(lp2273
F4.37560745116
aF12.350884011299524
aa(lp2274
F4.39748548841
aF12.181157434736763
aa(lp2275
F8.88421628081
aF3.663098560303163
aa(lp2276
F17.5942023832
aF2.3536704667305672
aa(lp2277
F28.6842590117
aF0.4037267989764379
aa(lp2278
F7.68782221882
aF3.799354858975507
aa(lp2279
F9.15409664434
aF1.8048022653714817
aa(lp2280
F5.67118173403
aF7.8162948838369495
aa(lp2281
F10.8458000313
aF3.116927601946368
aa(lp2282
F4.18353876364
aF21.622129440008976
aa(lp2283
F8.20280022263
aF6.808875325319675
aa(lp2284
F15.5316658805
aF1.8243129113562326
aa(lp2285
F5.47660138938
aF10.7626499559157
aa(lp2286
F21.6942268461
aF0.8074267546922402
aa(lp2287
F10.9545291766
aF3.7904071824319034
aa(lp2288
F22.8036724716
aF0.9611944411714461
aa(lp2289
F4.26783916411
aF20.418643994569074
aa(lp2290
F4.73909419965
aF10.70254130790645
aa(lp2291
F14.9987686747
aF1.4519820542244282
aa(lp2292
F6.58651093602
aF11.21148323778775
aa(lp2293
F32.9832437751
aF0.6843240887106057
aa(lp2294
F6.85462832601
aF6.869303908527032
aa(lp2295
F17.2466732824
aF1.7326877129872797
aa(lp2296
F13.9176105838
aF1.518393292311375
aa(lp2297
F6.75282859089
aF8.74494889946006
aa(lp2298
F5.36842493929
aF11.22436584980644
aa(lp2299
F27.2887107412
aF0.42151580901340857
aa(lp2300
F5.15844009188
aF9.472851973578024
aa(lp2301
F5.39526706398
aF10.986587584282672
aa(lp2302
F21.3720406616
aF0.9743578496877302
aa(lp2303
F19.6346399552
aF1.2824129330546787
aa(lp2304
F19.1510518961
aF1.5461983236147394
aa(lp2305
F27.5622800663
aF0.3762664130139516
aa(lp2306
F32.3317429682
aF0.9539974552386247
aa(lp2307
F20.2310914149
aF1.2466280955994589
aa(lp2308
F4.53107014514
aF15.080776862550447
aa(lp2309
F8.70873099153
aF4.828929039348919
aa(lp2310
F27.1529460111
aF0.36098703417957
aa(lp2311
F10.064000891
aF1.5512335275208073
aa(lp2312
F12.6592946207
aF6.450915821291843
aa(lp2313
F5.23620422107
aF9.323505666382015
aa(lp2314
F15.3010013722
aF1.9025765928401057
aa(lp2315
F4.46377813183
aF14.908832483724527
aa(lp2316
F13.1746170829
aF3.555281675986598
aa(lp2317
F12.5336448313
aF6.608214222078907
aa(lp2318
F32.6558686915
aF0.8199623926132455
aa(lp2319
F24.9455972451
aF1.0536684908467797
aa(lp2320
F7.13365998236
aF3.562682926652522
aa(lp2321
F24.6979997971
aF0.9789409700280662
aa(lp2322
F26.0908640617
aF0.5746608790196834
aa(lp2323
F9.81613127544
aF1.6153003438304436
aa(lp2324
F27.4251542949
aF0.37959342337116
aa(lp2325
F5.4493546163
aF10.77662726565345
aa(lp2326
F33.6478726494
aF1.1076290834269882
aa(lp2327
F25.8318992715
aF0.5919284205532989
aa(lp2328
F9.86521193182
aF1.6023961792514352
aa(lp2329
F19.4397563973
aF1.5183948210259532
aa(lp2330
F4.14201506264
aF18.596601409472242
aa(lp2331
F20.8456615844
aF0.842146669001905
aa(lp2332
F18.8666350149
aF1.640770660808504
aa(lp2333
F32.4934016831
aF0.7981493908305914
aa(lp2334
F25.4482635179
aF0.56576499878926
aa(lp2335
F16.6549335377
aF1.939609558501217
aa(lp2336
F7.31379383631
aF3.4271022412443863
aa(lp2337
F6.08132801641
aF5.978617428783716
aa(lp2338
F6.68580341169
aF8.926550954674706
aa(lp2339
F17.3329066488
aF1.9674449599881372
aa(lp2340
F6.42428957382
aF11.814672567962464
aa(lp2341
F10.0139312348
aF1.5639443167724993
aa(lp2342
F9.38524905587
aF1.7353899984825674
aa(lp2343
F5.6995376427
aF6.149032905144358
aa(lp2344
F5.5591618399
aF10.460819934718872
aa(lp2345
F4.71551661657
aF10.807248722499855
aa(lp2346
F17.9487343693
aF2.1399887389030114
aa(lp2347
F14.1980574046
aF1.4528207098055617
aa(lp2348
F18.1286704313
aF2.0698967912290183
aa(lp2349
F17.4195711821
aF1.9100565450780667
aa(lp2350
F11.7467731264
aF6.772863251236073
aa(lp2351
F4.8105366371
aF10.535968692797653
aa(lp2352
F11.6883314691
aF7.622145386343039
aa(lp2353
F32.819148035
aF0.7580124135162458
aa(lp2354
F30.3019316841
aF0.6556945069043564
aa(lp2355
F7.53596867728
aF3.8961738780320365
aa(lp2356
F18.4019624042
aF2.010544891008099
aa(lp2357
F16.5720731719
aF1.7129495553861658
aa(lp2358
F7.57364852066
aF3.864938989362835
aa(lp2359
F10.2157169624
aF1.509821060220337
aa(lp2360
F16.9060087427
aF2.1339334296266164
aa(lp2361
F23.8506022814
aF0.8053326628126563
aa(lp2362
F28.9718187083
aF0.4361355205954356
aa(lp2363
F33.9851925727
aF1.106761431427658
aa(lp2364
F30.9125307774
aF0.6595182321504797
aa(lp2365
F4.50852750761
aF15.12560684863077
aa(lp2366
F5.87267540098
aF4.8167819339283025
aa(lp2367
F22.4650096431
aF0.5686266921336264
aa(lp2368
F9.33855627449
aF1.7490731212058974
aa(lp2369
F5.90203877799
aF4.7904010016584255
aa(lp2370
F11.1196700733
aF5.0536672131757125
aa(lp2371
F4.24660613344
aF20.64373129966366
aa(lp2372
F11.9238571997
aF6.578926751002271
aa(lp2373
F9.29209579552
aF1.7629281020930607
aa(lp2374
F7.64957434708
aF3.808121430833151
aa(lp2375
F5.2101534538
aF9.48119914455154
aa(lp2376
F4.66871277104
aF11.129971672592763
aa(lp2377
F7.4984762958
aF3.9409155308618087
aa(lp2378
F6.05107265314
aF6.031084925823892
aa(lp2379
F13.3066926192
aF2.53908147322126
aa(lp2380
F5.18423229234
aF9.499556034577505
aa(lp2381
F9.52673285854
aF1.6945606460755704
aa(lp2382
F29.4085724968
aF0.5170940385514503
aa(lp2383
F12.9789576736
aF4.29066105943632
aa(lp2384
F28.5415512554
aF0.4047094088253162
aa(lp2385
F29.2622611908
aF0.4262184430850067
aa(lp2386
F4.41947291585
aF12.089213617257531
aa(lp2387
F5.28869716839
aF11.19881580310957
aa(lp2388
F4.35383825986
aF15.880772689497869
aa(lp2389
F8.32645846134
aF5.684752108697017
aa(lp2390
F26.6166080343
aF0.6654831000825507
aa(lp2391
F10.6315686016
aF2.583042725343267
aa(lp2392
F16.0834966027
aF1.6211457460493344
aa(lp2393
F15.8446367235
aF1.4257154167356678
aa(lp2394
F20.0302877799
aF1.6855553867499953
aa(lp2395
F11.2873004896
aF5.419681600845797
aa(lp2396
F6.99275251837
aF4.539039327899477
aa(lp2397
F18.2193137835
aF2.0414967539221873
aa(lp2398
F6.45641102169
aF11.861625406510736
aa(lp2399
F15.6093242099
aF2.1227893783608525
aa(lp2400
F19.732813155
aF1.4125697687780558
aa(lp2401
F10.4215687735
aF1.4607619723563119
aa(lp2402
F4.080501
aF15.414892772640004
aa(lp2403
F4.44157028043
aF11.89991551652832
aa(lp2404
F31.2224288985
aF0.7515674397765651
aa(lp2405
F21.9117114703
aF0.618131762245692
aa(lp2406
F4.90747135861
aF10.076747148459233
aa(lp2407
F11.6301805663
aF6.879976303496662
aa(lp2408
F7.06285486237
aF4.459913045619774
aa(lp2409
F7.2774068023
aF3.4564672643990173
aa(lp2410
F5.72803533091
aF6.081581870046577
aa(lp2411
F9.10855387497
aF1.8189763936182448
aa(lp2412
F6.2348891695
aF8.618574332325082
aa(lp2413
F16.1639140858
aF1.596412031368865
aa(lp2414
F8.08097846219
aF5.423377420010034
aa(lp2415
F24.3312038575
aF0.8421776144822872
aa(lp2416
F6.71923242875
aF8.917825182368823
aa(lp2417
F8.62229250912
aF4.823375057845254
aa(lp2418
F4.22547873975
aF20.83901572381126
aa(lp2419
F5.5869576491
aF10.199286909260367
aa(lp2420
F12.1036108374
aF7.03287781882719
aa(lp2421
F31.6931109169
aF0.7931759225576687
aa(lp2422
F11.864534527
aF6.621180354724625
aa(lp2423
F19.9306346068
aF1.7240602985607532
aa(lp2424
F16.9905387864
aF2.0844005001326287
aa(lp2425
F12.9143857449
aF4.337393925745219
aa(lp2426
F13.043852462
aF3.669415603112965
aa(lp2427
F5.00635936329
aF7.359759140567936
aa(lp2428
F5.81438617953
aF5.986550534935952
aa(lp2429
F9.47933617765
aF1.7080874023126313
aa(lp2430
F5.3417163575
aF11.283175195446578
aa(lp2431
F25.5755048355
aF0.5544928707954706
aa(lp2432
F21.8026979804
aF0.7036490102503853
aa(lp2433
F4.93200871541
aF7.638987204532306
aa(lp2434
F18.0384780411
aF2.0873470809855172
aa(lp2435
F10.1143208955
aF1.539296802038351
aa(lp2436
F6.26606361535
aF10.353059032534718
aa(lp2437
F4.0602
aF15.849500455205018
aa(lp2438
F22.9176908339
aF1.0646571757612815
aa(lp2439
F34.4975235989
aF0.9020676002733228
aa(lp2440
F22.0212700276
aF0.673990480409508
aa(lp2441
F6.2038698204
aF8.777460702929897
aa(lp2442
F4.83458932029
aF10.451463913241534
aa(lp2443
F13.8483687401
aF1.842204736742792
aa(lp2444
F34.1551185356
aF0.931847504116885
aa(lp2445
F8.36809075365
aF5.707293509428732
aa(lp2446
F4.04
aF16.38096465324107
aa(lp2447
F34.3258941283
aF0.8616770159498578
aa(lp2448
F26.221318382
aF0.5672958562732948
aa(lp2449
F27.7000914667
aF0.44807180540312636
aa(lp2450
F6.95796270485
aF4.566913070311906
aa(lp2451
F21.0546393417
aF0.915888879239707
aa(lp2452
F4.95666875898
aF7.503324206139038
aa(lp2453
F4.100903505
aF15.127774156617567
aa(lp2454
F19.2468071556
aF1.53150680948326
aa(lp2455
F29.7033934361
aF0.6389369790368432
aa(lp2456
F9.57436652283
aF1.681176982811224
aa(lp2457
F26.3524249739
aF0.6192440061810552
aa(lp2458
F6.02096781407
aF6.084027835787939
aa(lp2459
F16.8218992464
aF2.449068623689165
aa(lp2460
F14.924147935
aF1.4771254289288458
aa(lp2461
F14.6293590268
aF1.5985391820182504
aa(lp2462
F34.6700112169
aF1.0985022254888699
aa(lp2463
F6.39232793415
aF12.006416437577496
aa(lp2464
F4.55372549587
aF11.758211121422153
aa(lp2465
F11.0093018225
aF3.6729329480656983
aa(lp2466
F5.96120671674
aF4.710245644594061
aa(lp2467
F11.1752684237
aF5.763112273264951
aa(lp2468
F11.8055069921
aF7.509732208830867
aa(lp2469
F5.75667550757
aF6.020383115637101
aa(lp2470
F33.4804702979
aF1.058179743469859
aa(lp2471
F8.28503329487
aF5.6189025149338345
aa(lp2472
F14.8498984428
aF1.8020407401857645
aa(lp2473
F23.263177888
aF1.1207972256738903
aa(lp2474
F8.40993120741
aF5.758761819896429
aa(lp2475
F6.55374222489
aF11.231469359193776
aa(lp2476
F30.758737092
aF0.5318533481202807
aa(lp2477
F13.7109167992
aF1.8817606984663726
aa(lp2478
F6.52113654218
aF11.39728178830561
aa(lp2479
F13.2404901683
aF2.9958865936152286
aa(lp2480
F12.7225910938
aF5.751463774188578
aa(lp2481
F4.31062425173
aF20.027501846423704
aa(lp2482
F19.3430411913
aF1.319130393064152
aa(lp2483
F8.16199027128
aF6.789226580388465
aa(lp2484
F15.7658076851
aF1.7223110459749729
aa(lp2485
F7.72626132991
aF3.7786407201736996
aa(lp2486
F12.8501350695
aF4.965258431086863
aa(lp2487
F10.318129525
aF1.4850929526776147
aa(lp2488
F5.03139116011
aF7.275350780340223
aa(lp2489
F6.11173465649
aF5.875508238481702
aa(lp2490
F12.4712883893
aF6.058932153746239
aa(lp2491
F15.454393911
aF1.8657881539480012
aa(lp2492
F5.31514065423
aF11.197636081144392
aa(lp2493
F13.6427032828
aF1.8998427179539135
aa(lp2494
F13.9871986367
aF1.5130675899600097
aa(lp2495
F17.506669038
aF2.134315133750305
aa(lp2496
F4.59937659397
aF9.078750499900334
aa(lp2497
F14.4841553692
aF1.6424140522701114
aa(lp2498
F20.4339081063
aF1.0546219139938227
aa(lp2499
F23.4963912463
aF0.9602265137813392
aa(lp2500
F26.7496910745
aF0.5403184034597188
aa(lp2501
F33.8161120127
aF1.0541854041918035
aa(lp2502
F11.4574579554
aF4.969277341505074
aa(lp2503
F33.148159994
aF0.7877464492888299
aa(lp2504
F21.1599125385
aF0.8980395301322666
aa(lp2505
F11.343736992
aF5.257528776953167
aa(lp2506
F11.2311447658
aF5.589406648042256
aa(lp2507
F8.79603601972
aF3.57367850311756
aa(lp2508
F8.97328054903
aF1.8619526418868035
aa(lp2509
F7.20517492369
aF3.508271594929509
aa(lp2510
F31.5354337482
aF0.7760881716622401
aa(lp2511
F5.84345811043
aF4.849937352099567
aa(lp2512
F7.84273568524
aF4.460914009519585
aa(lp2513
F23.7319425685
aF0.8175788820778153
aa(lp2514
F12.0433938681
aF7.126908948251106
aa(lp2515
F10.3697201726
aF1.4729316421407397
aa(lp2516
F9.19986712756
aF1.7907791878464425
aa(lp2517
F5.08183085649
aF9.24260125133078
aa(lp2518
F6.92334597497
aF4.609333940199044
aa(lp2519
F11.5147452452
aF6.416890107766345
aa(lp2520
F4.12140802252
aF19.046542520094505
aa(lp2521
F4.16272513795
aF22.141214622311153
aa(lp2522
F6.78659273385
aF8.76231347631196
aa(lp2523
F5.26238524217
aF11.284564548584745
aa(lp2524
F28.2582621771
aF0.40667829155057716
aa(lp2525
F16.4075871111
aF1.5159132486938744
aa(lp2526
F12.5963130554
aF6.548858174130427
aa(lp2527
F8.49424076777
aF5.904363178769284
aa(lp2528
F10.7381500768
aF3.3723492902296655
aa(lp2529
F22.1313763777
aF0.5989330648334388
aa(lp2530
F13.1090717243
aF3.6004349387161483
aa(lp2531
F28.399553488
aF0.44278746357762166
aa(lp2532
F4.64548534432
aF11.203876512708902
aa(lp2533
F25.0703252313
aF0.9346793121627567
aa(lp2534
F7.46117044358
aF3.3142275502366783
aa(lp2535
F14.4120948947
aF1.6663055970828058
aa(lp2536
F18.3104103524
aF2.295588840322446
aa(lp2537
F5.53150431831
aF10.616125803345923
aa(lp2538
F20.3322468719
aF1.23012620883098
aa(lp2539
F25.7033823597
aF0.5474842762604233
aa(lp2540
F4.57649412335
aF11.94915575346221
aa(lp2541
F16.0034792067
aF1.3950133068183872
aa(lp2542
F18.7727711591
aF1.6471034463568683
aa(lp2543
F6.88890146764
aF5.589630784537238
aa(lp2544
F14.2690476916
aF1.437217028575034
aa(lp2545
F6.14229332977
aF7.222797991387658
aa(lp2546
F24.8214897961
aF1.0725319778250297
aa(lp2547
F9.2458664632
aF1.7768613236969388
aa(lp2548
F11.0643483316
aF4.402483391527714
aa(lp2549
F4.85876226689
aF10.508346269771643
aa(lp2550
F25.1956768574
aF0.8186995686660581
aa(lp2551
F20.1304392188
aF1.6492764200149646
aa(lp2552
F10.2667955473
aF1.4975393432459232
aa(lp2553
F5.10724001077
aF7.599150326876925
aa(lp2554
F4.48609702249
aF15.115475057143005
aa(lp2555
F27.9777848836
aF0.4059651120915473
aa(lp2556
F18.5864420773
aF1.5131610977910916
aa(lp2557
F6.4886930768
aF11.685650905935436
aa(lp2558
F6.3288809031
aF10.02214651684599
aa(lp2559
F7.09816913668
aF3.5961617936460684
aa(lp2560
F12.2249495361
aF7.746976569112058
aa(lp2561
F24.4528598768
aF0.9217950003820428
aa(lp2562
F8.53671197161
aF5.940610689576473
aa(lp2563
F11.9834764857
aF7.262333615097131
aa(lp2564
F9.96411068144
aF1.5767201325071858
aa(lp2565
F4.76278967065
aF10.606972294622368
aa(lp2566
F14.0571346299
aF1.2726472467635772
aa(lp2567
F8.66540397167
aF4.823915366041728
aa(lp2568
F11.400455677
aF5.11251806769431
aa(lp2569
F12.2860742838
aF6.989902697750074
aa(lp2570
F20.5360776468
aF1.0197690089751619
aa(lp2571
F22.5773346913
aF0.5597244408709543
aa(lp2572
F4.20445645746
aF21.18596864202255
aa(lp2573
F13.5072926737
aF1.9671243939022625
aa(lp2574
F10.4736766174
aF1.448719550681517
aa(lp2575
F7.38711461952
aF3.369323470607525
aa(lp2576
F8.00077073557
aF5.489030522394848
aa(lp2577
F5.61489243735
aF8.059182945381394
aa(lp2578
F11.5723189714
aF6.223433610159314
aa(lp2579
F7.96096590604
aF5.4830908728485666
aa(lp2580
F25.9610587679
aF0.5830795485472566
aa(lp2581
F21.2657121011
aF0.8790498790911015
aa(lp2582
F25.3216552417
aF0.6440480816261709
aa(lp2583
F14.3403929301
aF1.684605136244306
aa(lp2584
F15.3775063791
aF1.8865490768832733
aa(lp2585
F6.65254070815
aF8.868209089632435
aa(lp2586
F12.4092421784
aF6.089562711444397
aa(lp2587
F18.4939722162
aF1.7469045970959407
aa(lp2588
F23.6138732025
aF0.8391158607270524
aa(lp2589
F5.13277621083
aF7.57121781642168
aa(lp2590
F4.6920563349
aF10.9863534516182
aa(lp2591
F19.0557730309
aF1.8070354327674467
aa(lp2592
F32.1708885256
aF0.9299881071647369
aa(lp2593
F9.76729480144
aF1.6282746505464392
aa(lp2594
F4.88305607822
aF10.260835008338228
aa(lp2595
F5.50398439633
aF10.705512714733354
aa(lp2596
F20.9498898923
aF0.9326363065130099
aa(lp2597
F31.0670934313
aF0.7410145176700406
aa(lp2598
F6.82052569752
aF7.008589539148741
aa(lp2599
F22.3532434259
aF0.5800865849823988
aa(lp2600
F20.7419518252
aF0.8570655524421634
aa(lp2601
F5.64296689953
aF7.952938964143801
aa(lp2602
F29.1166778018
aF0.39487869163379336
aa(lp2603
F9.06323768653
aF1.8332578090885465
aa(lp2604
F5.4222433993
aF10.811717206975946
aa(lp2605
F17.6821733951
aF2.5857869277650285
aa(lp2606
F10.5260450004
aF1.5107908915270152
aa(lp2607
F19.5369551793
aF1.3179208727218956
aa(lp2608
F29.5556153593
aF0.5169414560333605
aa(lp2609
F27.838591924
aF0.409379979787372
aa(lp2610
F14.556576146
aF1.6139128213664793
aa(lp2611
F10.6847264446
aF2.553668858829781
aa(lp2612
F9.43217530115
aF1.7216188852221086
aa(lp2613
F6.17300479642
aF7.115674274209775
aa(lp2614
F30.6057085492
aF0.5840127106293296
aa(lp2615
F32.0108343538
aF0.8237741880762868
aa(lp2616
F14.1274203031
aF1.2465567014087469
aa(lp2617
F8.84001619982
aF3.629035044190552
aa(lp2618
F15.9238599072
aF1.4079726890573299
aa(lp2619
F16.3259573245
aF1.3351788038531627
aa(lp2620
F12.7862040493
aF5.691681861509732
aa(lp2621
F10.9000290315
aF3.907458941685694
aa(lp2622
F16.4896250466
aF1.481491729929191
aa(lp2623
F7.92135911049
aF4.41722974252593
aa(lp2624
F31.8515764715
aF0.8066960478895777
aa(lp2625
F8.1213833545
aF6.748309760551248
aa(lp2626
F18.6793742877
aF1.4807721671443383
aa(lp2627
F7.76489263656
aF3.739669054195286
aatp2628
Rp2629
aatp2630
Rp2631
.