ccollections
OrderedDict
p0
((lp1
(lp2
S'down2'
p3
ag0
((lp4
(lp5
F6.6194434907
aF1.6351318359375
aa(lp6
F4.62237347694
aF2.92236328125
aa(lp7
F17.7705842621
aF0.2911376953125
aa(lp8
F23.9698552928
aF0.17824554443359375
aa(lp9
F34.843361273
aF0.20782470703125
aa(lp10
F5.78545888511
aF1.989990234375
aa(lp11
F12.3475046552
aF0.6016387939453125
aa(lp12
F27.0178567275
aF0.15483856201171875
aa(lp13
F13.4400922127
aF0.52215576171875
aa(lp14
F28.8276803068
aF0.1499481201171875
aa(lp15
F24.2101530921
aF0.17689132690429688
aa(lp16
F15.1491313306
aF0.40692138671875
aa(lp17
F13.3732260823
aF0.52935791015625
aa(lp18
F33.313900794
aF0.1628875732421875
aa(lp19
F13.5748291371
aF0.4980926513671875
aa(lp20
F7.16932828228
aF1.3846435546875
aa(lp21
F13.7794713832
aF0.487945556640625
aa(lp22
F8.04077458925
aF1.224822998046875
aa(lp23
F26.8834395298
aF0.1557769775390625
aa(lp24
F4.33217737299
aF3.075439453125
aa(lp25
F7.42405019262
aF1.35333251953125
aa(lp26
F30.4534413425
aF0.1527862548828125
aa(lp27
F22.2420332596
aF0.2001190185546875
aa(lp28
F29.8519104033
aF0.150421142578125
aa(lp29
F8.57939553147
aF0.650634765625
aa(lp30
F8.75227464648
aF0.323822021484375
aa(lp31
F17.8594371834
aF0.28598785400390625
aa(lp32
F10.1648924999
aF0.2640380859375
aa(lp33
F7.24120079831
aF1.377685546875
aa(lp34
F14.7025058219
aF0.430328369140625
aa(lp35
F14.776018351
aF0.4249267578125
aa(lp36
F7.02771628096
aF1.4542236328125
aa(lp37
F15.2248769873
aF0.405120849609375
aa(lp38
F8.92863736222
aF0.31781005859375
aa(lp39
F24.0897045692
aF0.17731475830078125
aa(lp40
F20.6387580351
aF0.2234039306640625
aa(lp41
F8.24381422375
aF1.154632568359375
aa(lp42
F9.71870129496
aF0.281158447265625
aa(lp43
F6.29739393343
aF1.7255859375
aa(lp44
F16.7382082054
aF0.330474853515625
aa(lp45
F9.62223835545
aF0.2849578857421875
aa(lp46
F23.1474406845
aF0.1861572265625
aa(lp47
F5.99101275032
aF1.906494140625
aa(lp48
F30.0011699553
aF0.1518402099609375
aa(lp49
F22.6902213647
aF0.1945343017578125
aa(lp50
F10.5786752254
aF0.2490234375
aa(lp51
F21.5862953693
aF0.210357666015625
aa(lp52
F9.67034954722
aF0.2824249267578125
aa(lp53
F19.8314772207
aF0.23895263671875
aa(lp54
F17.1608689377
aF0.30959320068359375
aa(lp55
F7.80371709974
aF1.2593994140625
aa(lp56
F10.7918408272
aF0.278778076171875
aa(lp57
F26.4841870988
aF0.15812301635742188
aa(lp58
F7.35036280549
aF1.36376953125
aa(lp59
F7.88194936367
aF1.263427734375
aa(lp60
F9.01814695177
aF0.31280517578125
aa(lp61
F31.3785410429
aF0.1546783447265625
aa(lp62
F18.96096819
aF0.263671875
aa(lp63
F15.073762518
aF0.412322998046875
aa(lp64
F4.28917835993
aF3.1728515625
aa(lp65
F21.478900865
aF0.214080810546875
aa(lp66
F7.61151676327
aF1.31158447265625
aa(lp67
F9.91453799148
aF0.2742919921875
aa(lp68
F15.687370831
aF0.376312255859375
aa(lp69
F4.98145210278
aF2.5048828125
aa(lp70
F5.05654811591
aF2.4840087890625
aa(lp71
F8.45198086345
aF0.9296875
aa(lp72
F5.93154897188
aF1.934326171875
aa(lp73
F23.0322792881
aF0.1889495849609375
aa(lp74
F30.151175805
aF0.152313232421875
aa(lp75
F28.1176738081
aF0.154205322265625
aa(lp76
F12.1641288916
aF0.60357666015625
aa(lp77
F4.78660361901
aF2.6788330078125
aa(lp78
F16.2447336562
aF0.352264404296875
aa(lp79
F24.5751241762
aF0.1712646484375
aa(lp80
F17.0754914803
aF0.31322479248046875
aa(lp81
F23.3794937774
aF0.1852264404296875
aa(lp82
F6.36052530761
aF1.711669921875
aa(lp83
F4.37560745116
aF2.9656982421875
aa(lp84
F4.39748548841
aF2.991943359375
aa(lp85
F8.88421628081
aF0.3203125
aa(lp86
F17.5942023832
aF0.294158935546875
aa(lp87
F28.6842590117
aF0.1513671875
aa(lp88
F7.68782221882
aF1.26983642578125
aa(lp89
F9.15409664434
aF0.3052978515625
aa(lp90
F5.67118173403
aF2.045654296875
aa(lp91
F10.8458000313
aF0.3984375
aa(lp92
F4.18353876364
aF3.2139892578125
aa(lp93
F8.20280022263
aF1.16546630859375
aa(lp94
F15.5316658805
aF0.387115478515625
aa(lp95
F5.47660138938
aF2.129150390625
aa(lp96
F21.6942268461
aF0.206787109375
aa(lp97
F10.9545291766
aF0.523681640625
aa(lp98
F22.8036724716
aF0.1926727294921875
aa(lp99
F4.26783916411
aF3.20068359375
aa(lp100
F4.73909419965
aF2.797119140625
aa(lp101
F14.9987686747
aF0.417724609375
aa(lp102
F6.58651093602
aF1.628173828125
aa(lp103
F32.9832437751
aF0.158233642578125
aa(lp104
F6.85462832601
aF1.54815673828125
aa(lp105
F17.2466732824
aF0.30596160888671875
aa(lp106
F13.9176105838
aF0.475341796875
aa(lp107
F6.75282859089
aF1.572509765625
aa(lp108
F5.36842493929
aF2.2335205078125
aa(lp109
F27.2887107412
aF0.1546783447265625
aa(lp110
F5.15844009188
aF2.3935546875
aa(lp111
F5.39526706398
aF2.1917724609375
aa(lp112
F21.3720406616
aF0.2150115966796875
aa(lp113
F19.6346399552
aF0.24627685546875
aa(lp114
F19.1510518961
aF0.2581787109375
aa(lp115
F27.5622800663
aF0.1546783447265625
aa(lp116
F32.3317429682
aF0.15718460083007812
aa(lp117
F20.2310914149
aF0.22986602783203125
aa(lp118
F4.53107014514
aF2.908447265625
aa(lp119
F8.70873099153
aF0.3262939453125
aa(lp120
F27.1529460111
aF0.154205322265625
aa(lp121
F10.064000891
aF0.26788330078125
aa(lp122
F12.6592946207
aF0.574859619140625
aa(lp123
F5.23620422107
aF2.3031005859375
aa(lp124
F15.3010013722
aF0.401519775390625
aa(lp125
F4.46377813183
aF2.8553466796875
aa(lp126
F13.1746170829
aF0.54736328125
aa(lp127
F12.5336448313
aF0.5944976806640625
aa(lp128
F32.6558686915
aF0.15683746337890625
aa(lp129
F24.9455972451
aF0.16938400268554688
aa(lp130
F7.13365998236
aF1.3846435546875
aa(lp131
F24.6979997971
aF0.17126083374023438
aa(lp132
F26.0908640617
aF0.161407470703125
aa(lp133
F9.81613127544
aF0.2794189453125
aa(lp134
F27.4251542949
aF0.1551513671875
aa(lp135
F5.4493546163
aF2.1639404296875
aa(lp136
F33.6478726494
aF0.16754150390625
aa(lp137
F25.8318992715
aF0.16093826293945312
aa(lp138
F9.86521193182
aF0.27685546875
aa(lp139
F19.4397563973
aF0.252685546875
aa(lp140
F4.14201506264
aF3.36767578125
aa(lp141
F20.8456615844
aF0.22248077392578125
aa(lp142
F18.8666350149
aF0.267333984375
aa(lp143
F32.4934016831
aF0.15765380859375
aa(lp144
F25.4482635179
aF0.16422271728515625
aa(lp145
F16.6549335377
aF0.3359222412109375
aa(lp146
F7.31379383631
aF1.3568115234375
aa(lp147
F6.08132801641
aF1.8717041015625
aa(lp148
F6.68580341169
aF1.5655517578125
aa(lp149
F17.3329066488
aF0.301422119140625
aa(lp150
F6.42428957382
aF1.7186279296875
aa(lp151
F10.0139312348
aF0.27044677734375
aa(lp152
F9.38524905587
aF0.29278564453125
aa(lp153
F5.6995376427
aF2.0247802734375
aa(lp154
F5.5591618399
aF2.02081298828125
aa(lp155
F4.71551661657
aF2.8388671875
aa(lp156
F17.9487343693
aF0.28839111328125
aa(lp157
F14.1980574046
aF0.459136962890625
aa(lp158
F18.1286704313
aF0.28656005859375
aa(lp159
F17.4195711821
aF0.29779052734375
aa(lp160
F11.7467731264
aF0.6712646484375
aa(lp161
F4.8105366371
aF2.64404296875
aa(lp162
F11.6883314691
aF0.67840576171875
aa(lp163
F32.819148035
aF0.1573028564453125
aa(lp164
F30.3019316841
aF0.152313232421875
aa(lp165
F7.53596867728
aF1.34063720703125
aa(lp166
F18.4019624042
aF0.281982421875
aa(lp167
F16.5720731719
aF0.3395538330078125
aa(lp168
F7.57364852066
aF1.3011474609375
aa(lp169
F10.2157169624
aF0.261474609375
aa(lp170
F16.9060087427
aF0.32048797607421875
aa(lp171
F23.8506022814
aF0.1796417236328125
aa(lp172
F28.9718187083
aF0.14947509765625
aa(lp173
F33.9851925727
aF0.173553466796875
aa(lp174
F30.9125307774
aF0.15325927734375
aa(lp175
F4.50852750761
aF2.880615234375
aa(lp176
F5.87267540098
aF1.962158203125
aa(lp177
F22.4650096431
aF0.1963958740234375
aa(lp178
F9.33855627449
aF0.2952880859375
aa(lp179
F5.90203877799
aF1.9412841796875
aa(lp180
F11.1196700733
aF0.64361572265625
aa(lp181
F4.24660613344
aF3.242431640625
aa(lp182
F11.9238571997
aF0.646270751953125
aa(lp183
F9.29209579552
aF0.29779052734375
aa(lp184
F7.64957434708
aF1.294189453125
aa(lp185
F5.2101534538
aF2.337890625
aa(lp186
F4.66871277104
aF2.908447265625
aa(lp187
F7.4984762958
aF1.33941650390625
aa(lp188
F6.05107265314
aF1.892578125
aa(lp189
F13.3066926192
aF0.534759521484375
aa(lp190
F5.18423229234
aF2.351806640625
aa(lp191
F9.52673285854
aF0.2900238037109375
aa(lp192
F29.4085724968
aF0.1490020751953125
aa(lp193
F12.9789576736
aF0.5552215576171875
aa(lp194
F28.5415512554
aF0.152313232421875
aa(lp195
F29.2622611908
aF0.14947509765625
aa(lp196
F4.41947291585
aF2.8829345703125
aa(lp197
F5.28869716839
aF2.234619140625
aa(lp198
F4.35383825986
aF3.007080078125
aa(lp199
F8.32645846134
aF1.13006591796875
aa(lp200
F26.6166080343
aF0.15718460083007812
aa(lp201
F10.6315686016
aF0.2477264404296875
aa(lp202
F16.0834966027
aF0.354705810546875
aa(lp203
F15.8446367235
aF0.365509033203125
aa(lp204
F20.0302877799
aF0.2325439453125
aa(lp205
F11.2873004896
aF0.6903076171875
aa(lp206
F6.99275251837
aF1.4681396484375
aa(lp207
F18.2193137835
aF0.28656005859375
aa(lp208
F6.45641102169
aF1.6907958984375
aa(lp209
F15.6093242099
aF0.379913330078125
aa(lp210
F19.732813155
aF0.24261474609375
aa(lp211
F10.4215687735
aF0.2555084228515625
aa(lp212
F4.080501
aF3.240234375
aa(lp213
F4.44157028043
aF2.8829345703125
aa(lp214
F31.2224288985
aF0.154205322265625
aa(lp215
F21.9117114703
aF0.2038421630859375
aa(lp216
F4.90747135861
aF2.51739501953125
aa(lp217
F11.6301805663
aF0.6837615966796875
aa(lp218
F7.06285486237
aF1.4263916015625
aa(lp219
F7.2774068023
aF1.3707275390625
aa(lp220
F5.72803533091
aF2.045654296875
aa(lp221
F9.10855387497
aF0.30780029296875
aa(lp222
F6.2348891695
aF1.7603759765625
aa(lp223
F16.1639140858
aF0.35589599609375
aa(lp224
F8.08097846219
aF1.1759033203125
aa(lp225
F24.3312038575
aF0.17452239990234375
aa(lp226
F6.71923242875
aF1.572509765625
aa(lp227
F8.62229250912
aF0.54132080078125
aa(lp228
F4.22547873975
aF3.1588134765625
aa(lp229
F5.5869576491
aF1.99322509765625
aa(lp230
F12.1036108374
aF0.60357666015625
aa(lp231
F31.6931109169
aF0.15483856201171875
aa(lp232
F11.864534527
aF0.6587677001953125
aa(lp233
F19.9306346068
aF0.2362060546875
aa(lp234
F16.9905387864
aF0.315948486328125
aa(lp235
F12.9143857449
aF0.5570068359375
aa(lp236
F13.043852462
aF0.559967041015625
aa(lp237
F5.00635936329
aF2.490966796875
aa(lp238
F5.81438617953
aF1.97607421875
aa(lp239
F9.47933617765
aF0.289031982421875
aa(lp240
F5.3417163575
aF2.240478515625
aa(lp241
F25.5755048355
aF0.1632843017578125
aa(lp242
F21.8026979804
aF0.206634521484375
aa(lp243
F4.93200871541
aF2.53271484375
aa(lp244
F18.0384780411
aF0.289306640625
aa(lp245
F10.1143208955
aF0.26531982421875
aa(lp246
F6.26606361535
aF1.739501953125
aa(lp247
F4.0602
aF3.14453125
aa(lp248
F22.9176908339
aF0.1908111572265625
aa(lp249
F34.4975235989
aF0.1885986328125
aa(lp250
F22.0212700276
aF0.2010498046875
aa(lp251
F6.2038698204
aF1.78125
aa(lp252
F4.83458932029
aF2.6162109375
aa(lp253
F13.8483687401
aF0.480743408203125
aa(lp254
F34.1551185356
aF0.17863082885742188
aa(lp255
F8.36809075365
aF1.0645751953125
aa(lp256
F4.04
aF2.9674072265625
aa(lp257
F34.3258941283
aF0.18310546875
aa(lp258
F26.221318382
aF0.16046905517578125
aa(lp259
F27.7000914667
aF0.1551513671875
aa(lp260
F6.95796270485
aF1.4820556640625
aa(lp261
F21.0546393417
aF0.2197113037109375
aa(lp262
F4.95666875898
aF2.5257568359375
aa(lp263
F4.100903505
aF3.310546875
aa(lp264
F19.2468071556
aF0.25634765625
aa(lp265
F29.7033934361
aF0.150421142578125
aa(lp266
F9.57436652283
aF0.2874908447265625
aa(lp267
F26.3524249739
aF0.15906143188476562
aa(lp268
F6.02096781407
aF1.92041015625
aa(lp269
F16.8218992464
aF0.3250274658203125
aa(lp270
F14.924147935
aF0.417724609375
aa(lp271
F14.6293590268
aF0.433929443359375
aa(lp272
F34.6700112169
aF0.19683837890625
aa(lp273
F6.39232793415
aF1.7047119140625
aa(lp274
F4.55372549587
aF2.908447265625
aa(lp275
F11.0093018225
aF0.5640106201171875
aa(lp276
F5.96120671674
aF1.906494140625
aa(lp277
F11.1752684237
aF0.6832275390625
aa(lp278
F11.8055069921
aF0.667694091796875
aa(lp279
F5.75667550757
aF2.03173828125
aa(lp280
F33.4804702979
aF0.1647491455078125
aa(lp281
F8.28503329487
aF1.13067626953125
aa(lp282
F14.8498984428
aF0.42132568359375
aa(lp283
F23.263177888
aF0.1861572265625
aa(lp284
F8.40993120741
aF1.01385498046875
aa(lp285
F6.55374222489
aF1.6490478515625
aa(lp286
F30.758737092
aF0.152313232421875
aa(lp287
F13.7109167992
aF0.4969482421875
aa(lp288
F6.52113654218
aF1.6629638671875
aa(lp289
F13.2404901683
aF0.541961669921875
aa(lp290
F12.7225910938
aF0.5695037841796875
aa(lp291
F4.31062425173
aF3.0484619140625
aa(lp292
F19.3430411913
aF0.25543212890625
aa(lp293
F8.16199027128
aF1.1689453125
aa(lp294
F15.7658076851
aF0.372711181640625
aa(lp295
F7.72626132991
aF1.266357421875
aa(lp296
F12.8501350695
aF0.56414794921875
aa(lp297
F10.318129525
aF0.25762939453125
aa(lp298
F5.03139116011
aF2.5048828125
aa(lp299
F6.11173465649
aF1.8438720703125
aa(lp300
F12.4712883893
aF0.5980682373046875
aa(lp301
F15.454393911
aF0.3940277099609375
aa(lp302
F5.31514065423
aF2.2208251953125
aa(lp303
F13.6427032828
aF0.4945220947265625
aa(lp304
F13.9871986367
aF0.4713134765625
aa(lp305
F17.506669038
aF0.29506683349609375
aa(lp306
F4.59937659397
aF2.936279296875
aa(lp307
F14.4841553692
aF0.4393310546875
aa(lp308
F20.4339081063
aF0.223388671875
aa(lp309
F23.4963912463
aF0.1833648681640625
aa(lp310
F26.7496910745
aF0.1575164794921875
aa(lp311
F33.8161120127
aF0.17173004150390625
aa(lp312
F11.4574579554
aF0.6796875
aa(lp313
F33.148159994
aF0.16056060791015625
aa(lp314
F21.1599125385
aF0.21966552734375
aa(lp315
F11.343736992
aF0.68499755859375
aa(lp316
F11.2311447658
aF0.69915771484375
aa(lp317
F8.79603601972
aF0.32135009765625
aa(lp318
F8.97328054903
aF0.3153076171875
aa(lp319
F7.20517492369
aF1.38116455078125
aa(lp320
F31.5354337482
aF0.154205322265625
aa(lp321
F5.84345811043
aF1.9691162109375
aa(lp322
F7.84273568524
aF1.2774658203125
aa(lp323
F23.7319425685
aF0.18010711669921875
aa(lp324
F12.0433938681
aF0.615966796875
aa(lp325
F10.3697201726
aF0.25506591796875
aa(lp326
F9.19986712756
aF0.30279541015625
aa(lp327
F5.08183085649
aF2.435302734375
aa(lp328
F6.92334597497
aF1.489013671875
aa(lp329
F11.5147452452
aF0.6761474609375
aa(lp330
F4.12140802252
aF3.36767578125
aa(lp331
F4.16272513795
aF3.2967529296875
aa(lp332
F6.78659273385
aF1.55859375
aa(lp333
F5.26238524217
aF2.2822265625
aa(lp334
F28.2582621771
aF0.1546783447265625
aa(lp335
F16.4075871111
aF0.34409332275390625
aa(lp336
F12.5963130554
aF0.5873565673828125
aa(lp337
F8.49424076777
aF0.83160400390625
aa(lp338
F10.7381500768
aF0.24318695068359375
aa(lp339
F22.1313763777
aF0.2010498046875
aa(lp340
F13.1090717243
aF0.552764892578125
aa(lp341
F28.399553488
aF0.1527862548828125
aa(lp342
F4.64548534432
aF2.908447265625
aa(lp343
F25.0703252313
aF0.16844558715820312
aa(lp344
F7.46117044358
aF1.3359375
aa(lp345
F14.4120948947
aF0.446533203125
aa(lp346
F18.3104103524
aF0.2838134765625
aa(lp347
F5.53150431831
aF2.0277099609375
aa(lp348
F20.3322468719
aF0.2270965576171875
aa(lp349
F25.7033823597
aF0.16234588623046875
aa(lp350
F4.57649412335
aF2.908447265625
aa(lp351
F16.0034792067
aF0.359527587890625
aa(lp352
F18.7727711591
aF0.2691650390625
aa(lp353
F6.88890146764
aF1.5238037109375
aa(lp354
F14.2690476916
aF0.4537353515625
aa(lp355
F6.14229332977
aF1.8369140625
aa(lp356
F24.8214897961
aF0.17032241821289062
aa(lp357
F9.2458664632
aF0.30029296875
aa(lp358
F11.0643483316
aF0.603485107421875
aa(lp359
F4.85876226689
aF2.5242919921875
aa(lp360
F25.1956768574
aF0.1670379638671875
aa(lp361
F20.1304392188
aF0.2288818359375
aa(lp362
F10.2667955473
aF0.2589111328125
aa(lp363
F5.10724001077
aF2.4422607421875
aa(lp364
F4.48609702249
aF2.869140625
aa(lp365
F27.9777848836
aF0.1551513671875
aa(lp366
F18.5864420773
aF0.2764892578125
aa(lp367
F6.4886930768
aF1.683837890625
aa(lp368
F6.3288809031
aF1.7047119140625
aa(lp369
F7.09816913668
aF1.41943359375
aa(lp370
F12.2249495361
aF0.610565185546875
aa(lp371
F24.4528598768
aF0.173126220703125
aa(lp372
F8.53671197161
aF0.73431396484375
aa(lp373
F11.9834764857
aF0.63555908203125
aa(lp374
F9.96411068144
aF0.27301025390625
aa(lp375
F4.76278967065
aF2.7275390625
aa(lp376
F14.0571346299
aF0.466339111328125
aa(lp377
F8.66540397167
aF0.37530517578125
aa(lp378
F11.400455677
aF0.6761474609375
aa(lp379
F12.2860742838
aF0.603424072265625
aa(lp380
F20.5360776468
aF0.22432708740234375
aa(lp381
F22.5773346913
aF0.195465087890625
aa(lp382
F4.20445645746
aF3.227783203125
aa(lp383
F13.5072926737
aF0.51495361328125
aa(lp384
F10.4736766174
aF0.251220703125
aa(lp385
F7.38711461952
aF1.3568115234375
aa(lp386
F8.00077073557
aF1.22833251953125
aa(lp387
F5.61489243735
aF2.0247802734375
aa(lp388
F11.5723189714
aF0.6796875
aa(lp389
F7.96096590604
aF1.2353515625
aa(lp390
F25.9610587679
aF0.16093826293945312
aa(lp391
F21.2657121011
aF0.217803955078125
aa(lp392
F25.3216552417
aF0.16563034057617188
aa(lp393
F14.3403929301
aF0.451934814453125
aa(lp394
F15.3775063791
aF0.397918701171875
aa(lp395
F6.65254070815
aF1.6351318359375
aa(lp396
F12.4092421784
aF0.5980682373046875
aa(lp397
F18.4939722162
aF0.27740478515625
aa(lp398
F23.6138732025
aF0.18196868896484375
aa(lp399
F5.13277621083
aF2.407470703125
aa(lp400
F4.6920563349
aF2.919921875
aa(lp401
F19.0557730309
aF0.2618408203125
aa(lp402
F32.1708885256
aF0.15671539306640625
aa(lp403
F9.76729480144
aF0.27862548828125
aa(lp404
F4.88305607822
aF2.5535888671875
aa(lp405
F5.50398439633
aF2.07598876953125
aa(lp406
F20.9498898923
aF0.2197113037109375
aa(lp407
F31.0670934313
aF0.154205322265625
aa(lp408
F6.82052569752
aF1.572265625
aa(lp409
F22.3532434259
aF0.19732666015625
aa(lp410
F20.7419518252
aF0.2234039306640625
aa(lp411
F5.64296689953
aF2.03173828125
aa(lp412
F29.1166778018
aF0.1499481201171875
aa(lp413
F9.06323768653
aF0.310302734375
aa(lp414
F5.4222433993
aF2.1639404296875
aa(lp415
F17.6821733951
aF0.2923431396484375
aa(lp416
F10.5260450004
aF0.251617431640625
aa(lp417
F19.5369551793
aF0.24993896484375
aa(lp418
F29.5556153593
aF0.1499481201171875
aa(lp419
F27.838591924
aF0.1551513671875
aa(lp420
F14.556576146
aF0.4393310546875
aa(lp421
F10.6847264446
aF0.2451324462890625
aa(lp422
F9.43217530115
aF0.291534423828125
aa(lp423
F6.17300479642
aF1.80908203125
aa(lp424
F30.6057085492
aF0.152313232421875
aa(lp425
F32.0108343538
aF0.15624618530273438
aa(lp426
F14.1274203031
aF0.4681396484375
aa(lp427
F8.84001619982
aF0.32281494140625
aa(lp428
F15.9238599072
aF0.360107421875
aa(lp429
F16.3259573245
aF0.35135650634765625
aa(lp430
F12.7862040493
aF0.5695037841796875
aa(lp431
F10.9000290315
aF0.466949462890625
aa(lp432
F16.4896250466
aF0.3431854248046875
aa(lp433
F7.92135911049
aF1.252899169921875
aa(lp434
F31.8515764715
aF0.15530776977539062
aa(lp435
F8.1213833545
aF1.182708740234375
aa(lp436
F18.6793742877
aF0.27099609375
aa(lp437
F7.76489263656
aF1.28375244140625
aatp438
Rp439
aa(lp440
S'down1'
p441
ag0
((lp442
(lp443
F6.6194434907
aF2.3511743545532227
aa(lp444
F4.62237347694
aF4.202098846435547
aa(lp445
F17.7705842621
aF0.4097156524658203
aa(lp446
F23.9698552928
aF0.2501327395439148
aa(lp447
F34.843361273
aF0.29246997833251953
aa(lp448
F5.78545888511
aF2.861429214477539
aa(lp449
F12.3475046552
aF0.8529242277145386
aa(lp450
F27.0178567275
aF0.2156616747379303
aa(lp451
F13.4400922127
aF0.736839771270752
aa(lp452
F28.8276803068
aF0.20731234550476074
aa(lp453
F24.2101530921
aF0.24562996625900269
aa(lp454
F15.1491313306
aF0.5779447555541992
aa(lp455
F13.3732260823
aF0.7470030784606934
aa(lp456
F33.313900794
aF0.22718310356140137
aa(lp457
F13.5748291371
aF0.7061301469802856
aa(lp458
F7.16932828228
aF1.9909944534301758
aa(lp459
F13.7794713832
aF0.6885640621185303
aa(lp460
F8.04077458925
aF1.7527782917022705
aa(lp461
F26.8834395298
aF0.217626690864563
aa(lp462
F4.33217737299
aF4.422208786010742
aa(lp463
F7.42405019262
aF1.945971965789795
aa(lp464
F30.4534413425
aF0.21250689029693604
aa(lp465
F22.2420332596
aF0.2791106700897217
aa(lp466
F29.8519104033
aF0.20796632766723633
aa(lp467
F8.57939553147
aF0.9700870513916016
aa(lp468
F8.75227464648
aF0.5479176044464111
aa(lp469
F17.8594371834
aF0.40431082248687744
aa(lp470
F10.1648924999
aF0.43721485137939453
aa(lp471
F7.24120079831
aF1.9809894561767578
aa(lp472
F14.7025058219
aF0.607257604598999
aa(lp473
F14.776018351
aF0.6035175323486328
aa(lp474
F7.02771628096
aF2.0910444259643555
aa(lp475
F15.2248769873
aF0.5753874778747559
aa(lp476
F8.92863736222
aF0.5338215827941895
aa(lp477
F24.0897045692
aF0.24882656335830688
aa(lp478
F20.6387580351
aF0.31297898292541504
aa(lp479
F8.24381422375
aF1.6523325443267822
aa(lp480
F9.71870129496
aF0.4688708782196045
aa(lp481
F6.29739393343
aF2.4812393188476562
aa(lp482
F16.7382082054
aF0.46720361709594727
aa(lp483
F9.62223835545
aF0.47520697116851807
aa(lp484
F23.1474406845
aF0.25963783264160156
aa(lp485
F5.99101275032
aF2.7413692474365234
aa(lp486
F30.0011699553
aF0.20992827415466309
aa(lp487
F22.6902213647
aF0.27132153511047363
aa(lp488
F10.5786752254
aF0.40949249267578125
aa(lp489
F21.5862953693
aF0.29339075088500977
aa(lp490
F9.67034954722
aF0.4709829092025757
aa(lp491
F19.8314772207
aF0.3362760543823242
aa(lp492
F17.1608689377
aF0.43768250942230225
aa(lp493
F7.80371709974
aF1.8109045028686523
aa(lp494
F10.7918408272
aF0.4474968910217285
aa(lp495
F26.4841870988
aF0.2195684313774109
aa(lp496
F7.35036280549
aF1.9609794616699219
aa(lp497
F7.88194936367
aF1.808023452758789
aa(lp498
F9.01814695177
aF0.5254149436950684
aa(lp499
F31.3785410429
aF0.2138521671295166
aa(lp500
F18.96096819
aF0.371063232421875
aa(lp501
F15.073762518
aF0.5856165885925293
aa(lp502
F4.28917835993
aF4.562278747558594
aa(lp503
F21.478900865
aF0.2985835075378418
aa(lp504
F7.61151676327
aF1.885941982269287
aa(lp505
F9.91453799148
aF0.4541940689086914
aa(lp506
F15.687370831
aF0.5344710350036621
aa(lp507
F4.98145210278
aF3.6017990112304688
aa(lp508
F5.05654811591
aF3.571784019470215
aa(lp509
F8.45198086345
aF1.340576171875
aa(lp510
F5.93154897188
aF2.7813892364501953
aa(lp511
F23.0322792881
aF0.2635324001312256
aa(lp512
F30.151175805
aF0.21058225631713867
aa(lp513
F28.1176738081
aF0.21448063850402832
aa(lp514
F12.1641288916
aF0.8653650283813477
aa(lp515
F4.78660361901
aF3.851923942565918
aa(lp516
F16.2447336562
aF0.4964240789413452
aa(lp517
F24.5751241762
aF0.24033641815185547
aa(lp518
F17.0754914803
aF0.4428166151046753
aa(lp519
F23.3794937774
aF0.25833964347839355
aa(lp520
F6.36052530761
aF2.4612293243408203
aa(lp521
F4.37560745116
aF4.285130500793457
aa(lp522
F4.39748548841
aF4.302148818969727
aa(lp523
F8.88421628081
aF0.53802490234375
aa(lp524
F17.5942023832
aF0.4158625602722168
aa(lp525
F28.6842590117
aF0.21053314208984375
aa(lp526
F7.68782221882
aF1.8259119987487793
aa(lp527
F9.15409664434
aF0.5128049850463867
aa(lp528
F5.67118173403
aF2.941469192504883
aa(lp529
F10.8458000313
aF0.60052490234375
aa(lp530
F4.18353876364
aF4.643885612487793
aa(lp531
F8.20280022263
aF1.6758370399475098
aa(lp532
F15.5316658805
aF0.5498147010803223
aa(lp533
F5.47660138938
aF3.0408096313476562
aa(lp534
F21.6942268461
aF0.2896995544433594
aa(lp535
F10.9545291766
aF0.7626113891601562
aa(lp536
F22.8036724716
aF0.2687251567840576
aa(lp537
F4.26783916411
aF4.5711517333984375
aa(lp538
F4.73909419965
aF4.022008895874023
aa(lp539
F14.9987686747
aF0.5932884216308594
aa(lp540
F6.58651093602
aF2.3411693572998047
aa(lp541
F32.9832437751
aF0.22204995155334473
aa(lp542
F6.85462832601
aF2.226111888885498
aa(lp543
F17.2466732824
aF0.4325484037399292
aa(lp544
F13.9176105838
aF0.6707782745361328
aa(lp545
F6.75282859089
aF2.261129379272461
aa(lp546
F5.36842493929
aF3.211604118347168
aa(lp547
F27.2887107412
aF0.2138521671295166
aa(lp548
F5.15844009188
aF3.4417190551757812
aa(lp549
F5.39526706398
aF3.15157413482666
aa(lp550
F21.3720406616
aF0.2998816967010498
aa(lp551
F19.6346399552
aF0.34658336639404297
aa(lp552
F19.1510518961
aF0.36333274841308594
aa(lp553
F27.5622800663
aF0.2138521671295166
aa(lp554
F32.3317429682
aF0.2182653546333313
aa(lp555
F20.2310914149
aF0.32203209400177
aa(lp556
F4.53107014514
aF4.167937278747559
aa(lp557
F8.70873099153
aF0.5521001815795898
aa(lp558
F27.1529460111
aF0.21319818496704102
aa(lp559
F10.064000891
aF0.44358205795288086
aa(lp560
F12.6592946207
aF0.817628026008606
aa(lp561
F5.23620422107
aF3.3116540908813477
aa(lp562
F15.3010013722
aF0.5702729225158691
aa(lp563
F4.46377813183
aF4.125683784484863
aa(lp564
F13.1746170829
aF0.7724113464355469
aa(lp565
F12.5336448313
aF0.848318338394165
aa(lp566
F32.6558686915
aF0.22009068727493286
aa(lp567
F24.9455972451
aF0.23520535230636597
aa(lp568
F7.13365998236
aF1.9909944534301758
aa(lp569
F24.6979997971
aF0.23781150579452515
aa(lp570
F26.0908640617
aF0.22412919998168945
aa(lp571
F9.81613127544
aF0.46268367767333984
aa(lp572
F27.4251542949
aF0.2145061492919922
aa(lp573
F5.4493546163
aF3.1115541458129883
aa(lp574
F33.6478726494
aF0.2336740493774414
aa(lp575
F25.8318992715
aF0.22483721375465393
aa(lp576
F9.86521193182
aF0.4584388732910156
aa(lp577
F19.4397563973
aF0.3556022644042969
aa(lp578
F4.14201506264
aF4.842418670654297
aa(lp579
F20.8456615844
aF0.3116856813430786
aa(lp580
F18.8666350149
aF0.3762168884277344
aa(lp581
F32.4934016831
aF0.2189168930053711
aa(lp582
F25.4482635179
aF0.22803843021392822
aa(lp583
F16.6549335377
aF0.47490477561950684
aa(lp584
F7.31379383631
aF1.950974464416504
aa(lp585
F6.08132801641
aF2.6913442611694336
aa(lp586
F6.68580341169
aF2.251124382019043
aa(lp587
F17.3329066488
aF0.423419713973999
aa(lp588
F6.42428957382
aF2.4712343215942383
aa(lp589
F10.0139312348
aF0.4478268623352051
aa(lp590
F9.38524905587
aF0.491788387298584
aa(lp591
F5.6995376427
aF2.911454200744629
aa(lp592
F5.5591618399
aF2.919867992401123
aa(lp593
F4.71551661657
aF4.095851898193359
aa(lp594
F17.9487343693
aF0.4058504104614258
aa(lp595
F14.1980574046
aF0.6479108333587646
aa(lp596
F18.1286704313
aF0.4032735824584961
aa(lp597
F17.4195711821
aF0.42099666595458984
aa(lp598
F11.7467731264
aF0.9516305923461914
aa(lp599
F4.8105366371
aF3.7761688232421875
aa(lp600
F11.6883314691
aF0.9680509567260742
aa(lp601
F32.819148035
aF0.22074377536773682
aa(lp602
F30.3019316841
aF0.21058225631713867
aa(lp603
F7.53596867728
aF1.9185137748718262
aa(lp604
F18.4019624042
aF0.3968315124511719
aa(lp605
F16.5720731719
aF0.4800388813018799
aa(lp606
F7.57364852066
aF1.8709344863891602
aa(lp607
F10.2157169624
aF0.4329700469970703
aa(lp608
F16.9060087427
aF0.4530848264694214
aa(lp609
F23.8506022814
aF0.2505505084991455
aa(lp610
F28.9718187083
aF0.20665836334228516
aa(lp611
F33.9851925727
aF0.24314069747924805
aa(lp612
F30.9125307774
aF0.21189022064208984
aa(lp613
F4.50852750761
aF4.142068862915039
aa(lp614
F5.87267540098
aF2.821409225463867
aa(lp615
F22.4650096431
aF0.27391791343688965
aa(lp616
F9.33855627449
aF0.49599170684814453
aa(lp617
F5.90203877799
aF2.7913942337036133
aa(lp618
F11.1196700733
aF0.9254622459411621
aa(lp619
F4.24660613344
aF4.630775451660156
aa(lp620
F11.9238571997
aF0.9191967248916626
aa(lp621
F9.29209579552
aF0.5001950263977051
aa(lp622
F7.64957434708
aF1.8609294891357422
aa(lp623
F5.2101534538
aF3.3616790771484375
aa(lp624
F4.66871277104
aF4.182088851928711
aa(lp625
F7.4984762958
aF1.925961971282959
aa(lp626
F6.05107265314
aF2.7213592529296875
aa(lp627
F13.3066926192
aF0.7546255588531494
aa(lp628
F5.18423229234
aF3.3816890716552734
aa(lp629
F9.52673285854
aF0.48365509510040283
aa(lp630
F29.4085724968
aF0.20600438117980957
aa(lp631
F12.9789576736
aF0.7922732830047607
aa(lp632
F28.5415512554
aF0.21058225631713867
aa(lp633
F29.2622611908
aF0.20665836334228516
aa(lp634
F4.41947291585
aF4.165545463562012
aa(lp635
F5.28869716839
aF3.2287960052490234
aa(lp636
F4.35383825986
aF4.34492301940918
aa(lp637
F8.32645846134
aF1.6171765327453613
aa(lp638
F26.6166080343
aF0.21959319710731506
aa(lp639
F10.6315686016
aF0.4073597192764282
aa(lp640
F16.0834966027
aF0.5037837028503418
aa(lp641
F15.8446367235
aF0.519127368927002
aa(lp642
F20.0302877799
aF0.3272571563720703
aa(lp643
F11.2873004896
aF0.9832048416137695
aa(lp644
F6.99275251837
aF2.1110544204711914
aa(lp645
F18.2193137835
aF0.4032735824584961
aa(lp646
F6.45641102169
aF2.4312143325805664
aa(lp647
F15.6093242099
aF0.5395855903625488
aa(lp648
F19.732813155
aF0.3414297103881836
aa(lp649
F10.4215687735
aF0.4201563596725464
aa(lp650
F4.080501
aF4.7048492431640625
aa(lp651
F4.44157028043
aF4.165545463562012
aa(lp652
F31.2224288985
aF0.21319818496704102
aa(lp653
F21.9117114703
aF0.2843034267425537
aa(lp654
F4.90747135861
aF3.637378215789795
aa(lp655
F11.6301805663
aF0.9693471193313599
aa(lp656
F7.06285486237
aF2.0510244369506836
aa(lp657
F7.2774068023
aF1.9709844589233398
aa(lp658
F5.72803533091
aF2.941469192504883
aa(lp659
F9.10855387497
aF0.5170083045959473
aa(lp660
F6.2348891695
aF2.531264305114746
aa(lp661
F16.1639140858
aF0.5031423568725586
aa(lp662
F8.08097846219
aF1.6908445358276367
aa(lp663
F24.3312038575
aF0.24490803480148315
aa(lp664
F6.71923242875
aF2.261129379272461
aa(lp665
F8.62229250912
aF0.8345074653625488
aa(lp666
F4.22547873975
aF4.564162254333496
aa(lp667
F5.5869576491
aF2.8800063133239746
aa(lp668
F12.1036108374
aF0.8653650283813477
aa(lp669
F31.6931109169
aF0.21631568670272827
aa(lp670
F11.864534527
aF0.933914065361023
aa(lp671
F19.9306346068
aF0.3324108123779297
aa(lp672
F16.9905387864
aF0.44382548332214355
aa(lp673
F12.9143857449
aF0.7948207855224609
aa(lp674
F13.043852462
aF0.7901971340179443
aa(lp675
F5.00635936329
aF3.581789016723633
aa(lp676
F5.81438617953
aF2.841419219970703
aa(lp677
F9.47933617765
aF0.48548340797424316
aa(lp678
F5.3417163575
aF3.221609115600586
aa(lp679
F25.5755048355
aF0.22673535346984863
aa(lp680
F21.8026979804
aF0.28819799423217773
aa(lp681
F4.93200871541
aF3.6418190002441406
aa(lp682
F18.0384780411
aF0.40457725524902344
aa(lp683
F10.1143208955
aF0.43933725357055664
aa(lp684
F6.26606361535
aF2.501249313354492
aa(lp685
F4.0602
aF4.5343017578125
aa(lp686
F22.9176908339
aF0.2677661180496216
aa(lp687
F34.4975235989
aF0.2654132843017578
aa(lp688
F22.0212700276
aF0.2804088592529297
aa(lp689
F6.2038698204
aF2.561279296875
aa(lp690
F4.83458932029
aF3.7618789672851562
aa(lp691
F13.8483687401
aF0.6784007549285889
aa(lp692
F34.1551185356
aF0.2502538561820984
aa(lp693
F8.36809075365
aF1.5307645797729492
aa(lp694
F4.04
aF4.299900054931641
aa(lp695
F34.3258941283
aF0.25768280029296875
aa(lp696
F26.221318382
aF0.22282612323760986
aa(lp697
F27.7000914667
aF0.2145061492919922
aa(lp698
F6.95796270485
aF2.1310644149780273
aa(lp699
F21.0546393417
aF0.30780577659606934
aa(lp700
F4.95666875898
aF3.6318140029907227
aa(lp701
F4.100903505
aF4.767036437988281
aa(lp702
F19.2468071556
aF0.3618907928466797
aa(lp703
F29.7033934361
aF0.20796632766723633
aa(lp704
F9.57436652283
aF0.47943103313446045
aa(lp705
F26.3524249739
aF0.22087150812149048
aa(lp706
F6.02096781407
aF2.7613792419433594
aa(lp707
F16.8218992464
aF0.4595024585723877
aa(lp708
F14.924147935
aF0.5932884216308594
aa(lp709
F14.6293590268
aF0.6163039207458496
aa(lp710
F34.6700112169
aF0.2770090103149414
aa(lp711
F6.39232793415
aF2.4512243270874023
aa(lp712
F4.55372549587
aF4.182088851928711
aa(lp713
F11.0093018225
aF0.8230315446853638
aa(lp714
F5.96120671674
aF2.7413692474365234
aa(lp715
F11.1752684237
aF0.9731206893920898
aa(lp716
F11.8055069921
aF0.9465687274932861
aa(lp717
F5.75667550757
aF2.921459197998047
aa(lp718
F33.4804702979
aF0.22977948188781738
aa(lp719
F8.28503329487
aF1.62581205368042
aa(lp720
F14.8498984428
aF0.5984029769897461
aa(lp721
F23.263177888
aF0.25963783264160156
aa(lp722
F8.40993120741
aF1.464916706085205
aa(lp723
F6.55374222489
aF2.3711843490600586
aa(lp724
F30.758737092
aF0.21058225631713867
aa(lp725
F13.7109167992
aF0.701268196105957
aa(lp726
F6.52113654218
aF2.3911943435668945
aa(lp727
F13.2404901683
aF0.7647888660430908
aa(lp728
F12.7225910938
aF0.8126533031463623
aa(lp729
F4.31062425173
aF4.404715538024902
aa(lp730
F19.3430411913
aF0.3594675064086914
aa(lp731
F8.16199027128
aF1.6808395385742188
aa(lp732
F15.7658076851
aF0.5293564796447754
aa(lp733
F7.72626132991
aF1.8209095001220703
aa(lp734
F12.8501350695
aF0.8050107955932617
aa(lp735
F10.318129525
aF0.426602840423584
aa(lp736
F5.03139116011
aF3.6017990112304688
aa(lp737
F6.11173465649
aF2.6513242721557617
aa(lp738
F12.4712883893
aF0.8478623628616333
aa(lp739
F15.454393911
aF0.5570504665374756
aa(lp740
F5.31514065423
aF3.208865165710449
aa(lp741
F13.6427032828
aF0.7056581974029541
aa(lp742
F13.9871986367
aF0.6725406646728516
aa(lp743
F17.506669038
aF0.41714608669281006
aa(lp744
F4.59937659397
aF4.222108840942383
aa(lp745
F14.4841553692
aF0.6239757537841797
aa(lp746
F20.4339081063
aF0.3143730163574219
aa(lp747
F23.4963912463
aF0.25574326515197754
aa(lp748
F26.7496910745
aF0.21777606010437012
aa(lp749
F33.8161120127
aF0.23951590061187744
aa(lp750
F11.4574579554
aF0.9744873046875
aa(lp751
F33.148159994
aF0.22393763065338135
aa(lp752
F21.1599125385
aF0.30637264251708984
aa(lp753
F11.343736992
aF0.9756417274475098
aa(lp754
F11.2311447658
aF0.9958100318908691
aa(lp755
F8.79603601972
aF0.5437350273132324
aa(lp756
F8.97328054903
aF0.5296182632446289
aa(lp757
F7.20517492369
aF1.9859919548034668
aa(lp758
F31.5354337482
aF0.21319818496704102
aa(lp759
F5.84345811043
aF2.831414222717285
aa(lp760
F7.84273568524
aF1.8281126022338867
aa(lp761
F23.7319425685
aF0.2527450919151306
aa(lp762
F12.0433938681
aF0.8773212432861328
aa(lp763
F10.3697201726
aF0.42235803604125977
aa(lp764
F9.19986712756
aF0.5086016654968262
aa(lp765
F5.08183085649
aF3.501749038696289
aa(lp766
F6.92334597497
aF2.1410694122314453
aa(lp767
F11.5147452452
aF0.9694118499755859
aa(lp768
F4.12140802252
aF4.842418670654297
aa(lp769
F4.16272513795
aF4.763470649719238
aa(lp770
F6.78659273385
aF2.241119384765625
aa(lp771
F5.26238524217
aF3.2816390991210938
aa(lp772
F28.2582621771
aF0.2138521671295166
aa(lp773
F16.4075871111
aF0.4864565134048462
aa(lp774
F12.5963130554
aF0.8354025483131409
aa(lp775
F8.49424076777
aF1.2171268463134766
aa(lp776
F10.7381500768
aF0.3998950123786926
aa(lp777
F22.1313763777
aF0.2804088592529297
aa(lp778
F13.1090717243
aF0.7800338268280029
aa(lp779
F28.399553488
aF0.21123623847961426
aa(lp780
F4.64548534432
aF4.182088851928711
aa(lp781
F25.0703252313
aF0.23390227556228638
aa(lp782
F7.46117044358
aF1.92095947265625
aa(lp783
F14.4120948947
aF0.6342048645019531
aa(lp784
F18.3104103524
aF0.39940834045410156
aa(lp785
F5.53150431831
aF2.92983341217041
aa(lp786
F20.3322468719
aF0.31815218925476074
aa(lp787
F25.7033823597
aF0.22543227672576904
aa(lp788
F4.57649412335
aF4.182088851928711
aa(lp789
F16.0034792067
aF0.5082764625549316
aa(lp790
F18.7727711591
aF0.37879371643066406
aa(lp791
F6.88890146764
aF2.191094398498535
aa(lp792
F14.2690476916
aF0.6402883529663086
aa(lp793
F6.14229332977
aF2.6413192749023438
aa(lp794
F24.8214897961
aF0.23650842905044556
aa(lp795
F9.2458664632
aF0.5043983459472656
aa(lp796
F11.0643483316
aF0.8660078048706055
aa(lp797
F4.85876226689
aF3.647343635559082
aa(lp798
F25.1956768574
aF0.2333587408065796
aa(lp799
F20.1304392188
aF0.32210350036621094
aa(lp800
F10.2667955473
aF0.43079614639282227
aa(lp801
F5.10724001077
aF3.511754035949707
aa(lp802
F4.48609702249
aF4.1456146240234375
aa(lp803
F27.9777848836
aF0.2145061492919922
aa(lp804
F18.5864420773
aF0.3891010284423828
aa(lp805
F6.4886930768
aF2.4212093353271484
aa(lp806
F6.3288809031
aF2.4512243270874023
aa(lp807
F7.09816913668
aF2.0410194396972656
aa(lp808
F12.2249495361
aF0.8655788898468018
aa(lp809
F24.4528598768
aF0.24146318435668945
aa(lp810
F8.53671197161
aF1.091512680053711
aa(lp811
F11.9834764857
aF0.9010119438171387
aa(lp812
F9.96411068144
aF0.4520716667175293
aa(lp813
F4.76278967065
aF3.9219589233398438
aa(lp814
F14.0571346299
aF0.658074140548706
aa(lp815
F8.66540397167
aF0.6187353134155273
aa(lp816
F11.400455677
aF0.9630365371704102
aa(lp817
F12.2860742838
aF0.8554551601409912
aa(lp818
F20.5360776468
aF0.31427228450775146
aa(lp819
F22.5773346913
aF0.27261972427368164
aa(lp820
F4.20445645746
aF4.663816452026367
aa(lp821
F13.5072926737
aF0.7266764640808105
aa(lp822
F10.4736766174
aF0.41599082946777344
aa(lp823
F7.38711461952
aF1.950974464416504
aa(lp824
F8.00077073557
aF1.757800579071045
aa(lp825
F5.61489243735
aF2.911454200744629
aa(lp826
F11.5723189714
aF0.9744873046875
aa(lp827
F7.96096590604
aF1.7678451538085938
aa(lp828
F25.9610587679
aF0.22347766160964966
aa(lp829
F21.2657121011
aF0.30377626419067383
aa(lp830
F25.3216552417
aF0.2299930453300476
aa(lp831
F14.3403929301
aF0.6377475261688232
aa(lp832
F15.3775063791
aF0.5651583671569824
aa(lp833
F6.65254070815
aF2.3511743545532227
aa(lp834
F12.4092421784
aF0.8478623628616333
aa(lp835
F18.4939722162
aF0.39038944244384766
aa(lp836
F23.6138732025
aF0.2537959814071655
aa(lp837
F5.13277621083
aF3.461729049682617
aa(lp838
F4.6920563349
aF4.1785430908203125
aa(lp839
F19.0557730309
aF0.3684864044189453
aa(lp840
F32.1708885256
aF0.2176138162612915
aa(lp841
F9.76729480144
aF0.4646468162536621
aa(lp842
F4.88305607822
aF3.6718339920043945
aa(lp843
F5.50398439633
aF2.99959135055542
aa(lp844
F20.9498898923
aF0.30780577659606934
aa(lp845
F31.0670934313
aF0.21319818496704102
aa(lp846
F6.82052569752
aF2.2499847412109375
aa(lp847
F22.3532434259
aF0.27521610260009766
aa(lp848
F20.7419518252
aF0.31297898292541504
aa(lp849
F5.64296689953
aF2.921459197998047
aa(lp850
F29.1166778018
aF0.20731234550476074
aa(lp851
F9.06323768653
aF0.5212116241455078
aa(lp852
F5.4222433993
aF3.1115541458129883
aa(lp853
F17.6821733951
aF0.4132955074310303
aa(lp854
F10.5260450004
aF0.4137580394744873
aa(lp855
F19.5369551793
aF0.35173702239990234
aa(lp856
F29.5556153593
aF0.20731234550476074
aa(lp857
F27.838591924
aF0.2145061492919922
aa(lp858
F14.556576146
aF0.6239757537841797
aa(lp859
F10.6847264446
aF0.40309417247772217
aa(lp860
F9.43217530115
aF0.4896867275238037
aa(lp861
F6.17300479642
aF2.601299285888672
aa(lp862
F30.6057085492
aF0.21184897422790527
aa(lp863
F32.0108343538
aF0.21828219294548035
aa(lp864
F14.1274203031
aF0.6606149673461914
aa(lp865
F8.84001619982
aF0.5422282218933105
aa(lp866
F15.9238599072
aF0.5114555358886719
aa(lp867
F16.3259573245
aF0.4967247247695923
aa(lp868
F12.7862040493
aF0.8073674440383911
aa(lp869
F10.9000290315
aF0.6904687881469727
aa(lp870
F16.4896250466
aF0.48517298698425293
aa(lp871
F7.92135911049
aF1.7929565906524658
aa(lp872
F31.8515764715
aF0.21697118878364563
aa(lp873
F8.1213833545
aF1.6925108432769775
aa(lp874
F18.6793742877
aF0.38137054443359375
aa(lp875
F7.76489263656
aF1.8459219932556152
aatp876
Rp877
aa(lp878
S'central'
p879
ag0
((lp880
(lp881
F6.6194434907
aF3.671875
aa(lp882
F4.62237347694
aF6.5625
aa(lp883
F17.7705842621
aF0.62109375
aa(lp884
F23.9698552928
aF0.3740234375
aa(lp885
F34.843361273
aF0.443359375
aa(lp886
F5.78545888511
aF4.46875
aa(lp887
F12.3475046552
aF1.31640625
aa(lp888
F27.0178567275
aF0.322265625
aa(lp889
F13.4400922127
aF1.1328125
aa(lp890
F28.8276803068
aF0.3095703125
aa(lp891
F24.2101530921
aF0.3681640625
aa(lp892
F15.1491313306
aF0.8828125
aa(lp893
F13.3732260823
aF1.1484375
aa(lp894
F33.313900794
aF0.341796875
aa(lp895
F13.5748291371
aF1.08984375
aa(lp896
F7.16932828228
aF3.109375
aa(lp897
F13.7794713832
aF1.05859375
aa(lp898
F8.04077458925
aF2.7265625
aa(lp899
F26.8834395298
aF0.32421875
aa(lp900
F4.33217737299
aF6.90625
aa(lp901
F7.42405019262
aF3.0390625
aa(lp902
F30.4534413425
aF0.3154296875
aa(lp903
F22.2420332596
aF0.419921875
aa(lp904
F29.8519104033
aF0.310546875
aa(lp905
F8.57939553147
aF1.6015625
aa(lp906
F8.75227464648
aF1.0234375
aa(lp907
F17.8594371834
aF0.615234375
aa(lp908
F10.1648924999
aF0.8046875
aa(lp909
F7.24120079831
aF3.09375
aa(lp910
F14.7025058219
aF0.93359375
aa(lp911
F14.776018351
aF0.921875
aa(lp912
F7.02771628096
aF3.265625
aa(lp913
F15.2248769873
aF0.87890625
aa(lp914
F8.92863736222
aF0.9921875
aa(lp915
F24.0897045692
aF0.3720703125
aa(lp916
F20.6387580351
aF0.47265625
aa(lp917
F8.24381422375
aF2.5703125
aa(lp918
F9.71870129496
aF0.8671875
aa(lp919
F6.29739393343
aF3.875
aa(lp920
F16.7382082054
aF0.7109375
aa(lp921
F9.62223835545
aF0.87890625
aa(lp922
F23.1474406845
aF0.390625
aa(lp923
F5.99101275032
aF4.28125
aa(lp924
F30.0011699553
aF0.3134765625
aa(lp925
F22.6902213647
aF0.408203125
aa(lp926
F10.5786752254
aF0.75
aa(lp927
F21.5862953693
aF0.44140625
aa(lp928
F9.67034954722
aF0.87109375
aa(lp929
F19.8314772207
aF0.509765625
aa(lp930
F17.1608689377
aF0.666015625
aa(lp931
F7.80371709974
aF2.828125
aa(lp932
F10.7918408272
aF0.79296875
aa(lp933
F26.4841870988
aF0.3291015625
aa(lp934
F7.35036280549
aF3.0625
aa(lp935
F7.88194936367
aF2.8125
aa(lp936
F9.01814695177
aF0.9765625
aa(lp937
F31.3785410429
aF0.3193359375
aa(lp938
F18.96096819
aF0.5625
aa(lp939
F15.073762518
aF0.89453125
aa(lp940
F4.28917835993
aF7.125
aa(lp941
F21.478900865
aF0.44921875
aa(lp942
F7.61151676327
aF2.9453125
aa(lp943
F9.91453799148
aF0.8359375
aa(lp944
F15.687370831
aF0.81640625
aa(lp945
F4.98145210278
aF5.625
aa(lp946
F5.05654811591
aF5.578125
aa(lp947
F8.45198086345
aF2.125
aa(lp948
F5.93154897188
aF4.34375
aa(lp949
F23.0322792881
aF0.396484375
aa(lp950
F30.151175805
aF0.314453125
aa(lp951
F28.1176738081
aF0.318359375
aa(lp952
F12.1641288916
aF1.33203125
aa(lp953
F4.78660361901
aF6.015625
aa(lp954
F16.2447336562
aF0.7578125
aa(lp955
F24.5751241762
aF0.359375
aa(lp956
F17.0754914803
aF0.673828125
aa(lp957
F23.3794937774
aF0.388671875
aa(lp958
F6.36052530761
aF3.84375
aa(lp959
F4.37560745116
aF6.71875
aa(lp960
F4.39748548841
aF6.71875
aa(lp961
F8.88421628081
aF0.9999999999999999
aa(lp962
F17.5942023832
aF0.6328125
aa(lp963
F28.6842590117
aF0.3125
aa(lp964
F7.68782221882
aF2.8515625
aa(lp965
F9.15409664434
aF0.953125
aa(lp966
F5.67118173403
aF4.59375
aa(lp967
F10.8458000313
aF0.9999999999999999
aa(lp968
F4.18353876364
aF7.28125
aa(lp969
F8.20280022263
aF2.6171875
aa(lp970
F15.5316658805
aF0.83984375
aa(lp971
F5.47660138938
aF4.78125
aa(lp972
F21.6942268461
aF0.4375
aa(lp973
F10.9545291766
aF1.21875
aa(lp974
F22.8036724716
aF0.404296875
aa(lp975
F4.26783916411
aF7.1875
aa(lp976
F4.73909419965
aF6.28125
aa(lp977
F14.9987686747
aF0.90625
aa(lp978
F6.58651093602
aF3.65625
aa(lp979
F32.9832437751
aF0.33203125
aa(lp980
F6.85462832601
aF3.4765625
aa(lp981
F17.2466732824
aF0.658203125
aa(lp982
F13.9176105838
aF1.03125
aa(lp983
F6.75282859089
aF3.53125
aa(lp984
F5.36842493929
aF5.015625
aa(lp985
F27.2887107412
aF0.3193359375
aa(lp986
F5.15844009188
aF5.375
aa(lp987
F5.39526706398
aF4.921875
aa(lp988
F21.3720406616
aF0.451171875
aa(lp989
F19.6346399552
aF0.525390625
aa(lp990
F19.1510518961
aF0.55078125
aa(lp991
F27.5622800663
aF0.3193359375
aa(lp992
F32.3317429682
aF0.3271484375
aa(lp993
F20.2310914149
aF0.486328125
aa(lp994
F4.53107014514
aF6.53125
aa(lp995
F8.70873099153
aF1.03125
aa(lp996
F27.1529460111
aF0.318359375
aa(lp997
F10.064000891
aF0.81640625
aa(lp998
F12.6592946207
aF1.2578125
aa(lp999
F5.23620422107
aF5.171875
aa(lp1000
F15.3010013722
aF0.87109375
aa(lp1001
F4.46377813183
aF6.46875
aa(lp1002
F13.1746170829
aF1.1875
aa(lp1003
F12.5336448313
aF1.30078125
aa(lp1004
F32.6558686915
aF0.3291015625
aa(lp1005
F24.9455972451
aF0.3525390625
aa(lp1006
F7.13365998236
aF3.109375
aa(lp1007
F24.6979997971
aF0.3564453125
aa(lp1008
F26.0908640617
aF0.3359375
aa(lp1009
F9.81613127544
aF0.8515625
aa(lp1010
F27.4251542949
aF0.3203125
aa(lp1011
F5.4493546163
aF4.859375
aa(lp1012
F33.6478726494
aF0.3515625
aa(lp1013
F25.8318992715
aF0.3349609375
aa(lp1014
F9.86521193182
aF0.84375
aa(lp1015
F19.4397563973
aF0.5390625
aa(lp1016
F4.14201506264
aF7.5625
aa(lp1017
F20.8456615844
aF0.470703125
aa(lp1018
F18.8666350149
aF0.5703125
aa(lp1019
F32.4934016831
aF0.328125
aa(lp1020
F25.4482635179
aF0.341796875
aa(lp1021
F16.6549335377
aF0.72265625
aa(lp1022
F7.31379383631
aF3.046875
aa(lp1023
F6.08132801641
aF4.203125
aa(lp1024
F6.68580341169
aF3.515625
aa(lp1025
F17.3329066488
aF0.6484375
aa(lp1026
F6.42428957382
aF3.859375
aa(lp1027
F10.0139312348
aF0.82421875
aa(lp1028
F9.38524905587
aF0.9140625
aa(lp1029
F5.6995376427
aF4.546875
aa(lp1030
F5.5591618399
aF4.578125
aa(lp1031
F4.71551661657
aF6.375
aa(lp1032
F17.9487343693
aF0.615234375
aa(lp1033
F14.1980574046
aF0.99609375
aa(lp1034
F18.1286704313
aF0.611328125
aa(lp1035
F17.4195711821
aF0.640625
aa(lp1036
F11.7467731264
aF1.46875
aa(lp1037
F4.8105366371
aF5.9375
aa(lp1038
F11.6883314691
aF1.484375
aa(lp1039
F32.819148035
aF0.330078125
aa(lp1040
F30.3019316841
aF0.314453125
aa(lp1041
F7.53596867728
aF2.984375
aa(lp1042
F18.4019624042
aF0.6015625
aa(lp1043
F16.5720731719
aF0.73046875
aa(lp1044
F7.57364852066
aF2.921875
aa(lp1045
F10.2157169624
aF0.796875
aa(lp1046
F16.9060087427
aF0.689453125
aa(lp1047
F23.8506022814
aF0.376953125
aa(lp1048
F28.9718187083
aF0.30859375
aa(lp1049
F33.9851925727
aF0.3671875
aa(lp1050
F30.9125307774
aF0.31640625
aa(lp1051
F4.50852750761
aF6.46875
aa(lp1052
F5.87267540098
aF4.40625
aa(lp1053
F22.4650096431
aF0.412109375
aa(lp1054
F9.33855627449
aF0.921875
aa(lp1055
F5.90203877799
aF4.359375
aa(lp1056
F11.1196700733
aF1.4453125
aa(lp1057
F4.24660613344
aF7.28125
aa(lp1058
F11.9238571997
aF1.4140625
aa(lp1059
F9.29209579552
aF0.9296875
aa(lp1060
F7.64957434708
aF2.90625
aa(lp1061
F5.2101534538
aF5.25
aa(lp1062
F4.66871277104
aF6.53125
aa(lp1063
F7.4984762958
aF3.0078125
aa(lp1064
F6.05107265314
aF4.25
aa(lp1065
F13.3066926192
aF1.16015625
aa(lp1066
F5.18423229234
aF5.28125
aa(lp1067
F9.52673285854
aF0.89453125
aa(lp1068
F29.4085724968
aF0.3076171875
aa(lp1069
F12.9789576736
aF1.21484375
aa(lp1070
F28.5415512554
aF0.314453125
aa(lp1071
F29.2622611908
aF0.30859375
aa(lp1072
F4.41947291585
aF6.53125
aa(lp1073
F5.28869716839
aF5.0625
aa(lp1074
F4.35383825986
aF6.8125
aa(lp1075
F8.32645846134
aF2.515625
aa(lp1076
F26.6166080343
aF0.3271484375
aa(lp1077
F10.6315686016
aF0.74609375
aa(lp1078
F16.0834966027
aF0.76953125
aa(lp1079
F15.8446367235
aF0.79296875
aa(lp1080
F20.0302877799
aF0.49609375
aa(lp1081
F11.2873004896
aF1.5234375
aa(lp1082
F6.99275251837
aF3.296875
aa(lp1083
F18.2193137835
aF0.611328125
aa(lp1084
F6.45641102169
aF3.796875
aa(lp1085
F15.6093242099
aF0.82421875
aa(lp1086
F19.732813155
aF0.517578125
aa(lp1087
F10.4215687735
aF0.76953125
aa(lp1088
F4.080501
aF7.40625
aa(lp1089
F4.44157028043
aF6.53125
aa(lp1090
F31.2224288985
aF0.318359375
aa(lp1091
F21.9117114703
aF0.427734375
aa(lp1092
F4.90747135861
aF5.703125
aa(lp1093
F11.6301805663
aF1.49609375
aa(lp1094
F7.06285486237
aF3.203125
aa(lp1095
F7.2774068023
aF3.078125
aa(lp1096
F5.72803533091
aF4.59375
aa(lp1097
F9.10855387497
aF0.9609375
aa(lp1098
F6.2348891695
aF3.953125
aa(lp1099
F16.1639140858
aF0.765625
aa(lp1100
F8.08097846219
aF2.640625
aa(lp1101
F24.3312038575
aF0.3662109375
aa(lp1102
F6.71923242875
aF3.53125
aa(lp1103
F8.62229250912
aF1.4140625
aa(lp1104
F4.22547873975
aF7.15625
aa(lp1105
F5.5869576491
aF4.515625
aa(lp1106
F12.1036108374
aF1.33203125
aa(lp1107
F31.6931109169
aF0.322265625
aa(lp1108
F11.864534527
aF1.44140625
aa(lp1109
F19.9306346068
aF0.50390625
aa(lp1110
F16.9905387864
aF0.6796875
aa(lp1111
F12.9143857449
aF1.21875
aa(lp1112
F13.043852462
aF1.21484375
aa(lp1113
F5.00635936329
aF5.59375
aa(lp1114
F5.81438617953
aF4.4375
aa(lp1115
F9.47933617765
aF0.90234375
aa(lp1116
F5.3417163575
aF5.03125
aa(lp1117
F25.5755048355
aF0.33984375
aa(lp1118
F21.8026979804
aF0.43359375
aa(lp1119
F4.93200871541
aF5.6875
aa(lp1120
F18.0384780411
aF0.6171875
aa(lp1121
F10.1143208955
aF0.80859375
aa(lp1122
F6.26606361535
aF3.90625
aa(lp1123
F4.0602
aF7.1875
aa(lp1124
F22.9176908339
aF0.400390625
aa(lp1125
F34.4975235989
aF0.40234375
aa(lp1126
F22.0212700276
aF0.421875
aa(lp1127
F6.2038698204
aF3.9999999999999996
aa(lp1128
F4.83458932029
aF5.875
aa(lp1129
F13.8483687401
aF1.04296875
aa(lp1130
F34.1551185356
aF0.3779296875
aa(lp1131
F8.36809075365
aF2.390625
aa(lp1132
F4.04
aF6.84375
aa(lp1133
F34.3258941283
aF0.390625
aa(lp1134
F26.221318382
aF0.333984375
aa(lp1135
F27.7000914667
aF0.3203125
aa(lp1136
F6.95796270485
aF3.328125
aa(lp1137
F21.0546393417
aF0.46484375
aa(lp1138
F4.95666875898
aF5.671875
aa(lp1139
F4.100903505
aF7.5
aa(lp1140
F19.2468071556
aF0.546875
aa(lp1141
F29.7033934361
aF0.310546875
aa(lp1142
F9.57436652283
aF0.88671875
aa(lp1143
F26.3524249739
aF0.3310546875
aa(lp1144
F6.02096781407
aF4.3125
aa(lp1145
F16.8218992464
aF0.69921875
aa(lp1146
F14.924147935
aF0.90625
aa(lp1147
F14.6293590268
aF0.94140625
aa(lp1148
F34.6700112169
aF0.419921875
aa(lp1149
F6.39232793415
aF3.828125
aa(lp1150
F4.55372549587
aF6.53125
aa(lp1151
F11.0093018225
aF1.30078125
aa(lp1152
F5.96120671674
aF4.28125
aa(lp1153
F11.1752684237
aF1.5078125
aa(lp1154
F11.8055069921
aF1.4609375
aa(lp1155
F5.75667550757
aF4.5625
aa(lp1156
F33.4804702979
aF0.345703125
aa(lp1157
F8.28503329487
aF2.5390625
aa(lp1158
F14.8498984428
aF0.9140625
aa(lp1159
F23.263177888
aF0.390625
aa(lp1160
F8.40993120741
aF2.296875
aa(lp1161
F6.55374222489
aF3.703125
aa(lp1162
F30.758737092
aF0.314453125
aa(lp1163
F13.7109167992
aF1.078125
aa(lp1164
F6.52113654218
aF3.734375
aa(lp1165
F13.2404901683
aF1.17578125
aa(lp1166
F12.7225910938
aF1.24609375
aa(lp1167
F4.31062425173
aF6.90625
aa(lp1168
F19.3430411913
aF0.544921875
aa(lp1169
F8.16199027128
aF2.625
aa(lp1170
F15.7658076851
aF0.80859375
aa(lp1171
F7.72626132991
aF2.84375
aa(lp1172
F12.8501350695
aF1.234375
aa(lp1173
F10.318129525
aF0.78515625
aa(lp1174
F5.03139116011
aF5.625
aa(lp1175
F6.11173465649
aF4.140625
aa(lp1176
F12.4712883893
aF1.30859375
aa(lp1177
F15.454393911
aF0.84765625
aa(lp1178
F5.31514065423
aF5.03125
aa(lp1179
F13.6427032828
aF1.08203125
aa(lp1180
F13.9871986367
aF1.03125
aa(lp1181
F17.506669038
aF0.634765625
aa(lp1182
F4.59937659397
aF6.59375
aa(lp1183
F14.4841553692
aF0.953125
aa(lp1184
F20.4339081063
aF0.4765625
aa(lp1185
F23.4963912463
aF0.384765625
aa(lp1186
F26.7496910745
aF0.3251953125
aa(lp1187
F33.8161120127
aF0.3603515625
aa(lp1188
F11.4574579554
aF1.5
aa(lp1189
F33.148159994
aF0.3369140625
aa(lp1190
F21.1599125385
aF0.4609375
aa(lp1191
F11.343736992
aF1.51171875
aa(lp1192
F11.2311447658
aF1.54296875
aa(lp1193
F8.79603601972
aF1.015625
aa(lp1194
F8.97328054903
aF0.984375
aa(lp1195
F7.20517492369
aF3.1015625
aa(lp1196
F31.5354337482
aF0.318359375
aa(lp1197
F5.84345811043
aF4.421875
aa(lp1198
F7.84273568524
aF2.84375
aa(lp1199
F23.7319425685
aF0.3779296875
aa(lp1200
F12.0433938681
aF1.359375
aa(lp1201
F10.3697201726
aF0.77734375
aa(lp1202
F9.19986712756
aF0.9453125
aa(lp1203
F5.08183085649
aF5.46875
aa(lp1204
F6.92334597497
aF3.34375
aa(lp1205
F11.5147452452
aF1.4921875
aa(lp1206
F4.12140802252
aF7.5625
aa(lp1207
F4.16272513795
aF7.46875
aa(lp1208
F6.78659273385
aF3.5
aa(lp1209
F5.26238524217
aF5.125
aa(lp1210
F28.2582621771
aF0.3193359375
aa(lp1211
F16.4075871111
aF0.740234375
aa(lp1212
F12.5963130554
aF1.28515625
aa(lp1213
F8.49424076777
aF1.953125
aa(lp1214
F10.7381500768
aF0.732421875
aa(lp1215
F22.1313763777
aF0.421875
aa(lp1216
F13.1090717243
aF1.19921875
aa(lp1217
F28.399553488
aF0.3154296875
aa(lp1218
F4.64548534432
aF6.53125
aa(lp1219
F25.0703252313
aF0.3505859375
aa(lp1220
F7.46117044358
aF3.0
aa(lp1221
F14.4120948947
aF0.96875
aa(lp1222
F18.3104103524
aF0.60546875
aa(lp1223
F5.53150431831
aF4.59375
aa(lp1224
F20.3322468719
aF0.48046875
aa(lp1225
F25.7033823597
aF0.337890625
aa(lp1226
F4.57649412335
aF6.53125
aa(lp1227
F16.0034792067
aF0.7734375
aa(lp1228
F18.7727711591
aF0.57421875
aa(lp1229
F6.88890146764
aF3.421875
aa(lp1230
F14.2690476916
aF0.984375
aa(lp1231
F6.14229332977
aF4.125
aa(lp1232
F24.8214897961
aF0.3544921875
aa(lp1233
F9.2458664632
aF0.9375
aa(lp1234
F11.0643483316
aF1.3671875
aa(lp1235
F4.85876226689
aF5.71875
aa(lp1236
F25.1956768574
aF0.34765625
aa(lp1237
F20.1304392188
aF0.48828125
aa(lp1238
F10.2667955473
aF0.7890625
aa(lp1239
F5.10724001077
aF5.484375
aa(lp1240
F4.48609702249
aF6.5
aa(lp1241
F27.9777848836
aF0.3203125
aa(lp1242
F18.5864420773
aF0.58984375
aa(lp1243
F6.4886930768
aF3.78125
aa(lp1244
F6.3288809031
aF3.828125
aa(lp1245
F7.09816913668
aF3.1875
aa(lp1246
F12.2249495361
aF1.3359375
aa(lp1247
F24.4528598768
aF0.36328125
aa(lp1248
F8.53671197161
aF1.7734375
aa(lp1249
F11.9834764857
aF1.390625
aa(lp1250
F9.96411068144
aF0.83203125
aa(lp1251
F4.76278967065
aF6.125
aa(lp1252
F14.0571346299
aF1.01171875
aa(lp1253
F8.66540397167
aF1.1171875
aa(lp1254
F11.400455677
aF1.4921875
aa(lp1255
F12.2860742838
aF1.3203125
aa(lp1256
F20.5360776468
aF0.474609375
aa(lp1257
F22.5773346913
aF0.41015625
aa(lp1258
F4.20445645746
aF7.3125
aa(lp1259
F13.5072926737
aF1.1171875
aa(lp1260
F10.4736766174
aF0.765625
aa(lp1261
F7.38711461952
aF3.046875
aa(lp1262
F8.00077073557
aF2.734375
aa(lp1263
F5.61489243735
aF4.546875
aa(lp1264
F11.5723189714
aF1.5
aa(lp1265
F7.96096590604
aF2.75
aa(lp1266
F25.9610587679
aF0.3349609375
aa(lp1267
F21.2657121011
aF0.45703125
aa(lp1268
F25.3216552417
aF0.3447265625
aa(lp1269
F14.3403929301
aF0.98046875
aa(lp1270
F15.3775063791
aF0.86328125
aa(lp1271
F6.65254070815
aF3.671875
aa(lp1272
F12.4092421784
aF1.30859375
aa(lp1273
F18.4939722162
aF0.591796875
aa(lp1274
F23.6138732025
aF0.3818359375
aa(lp1275
F5.13277621083
aF5.40625
aa(lp1276
F4.6920563349
aF6.5
aa(lp1277
F19.0557730309
aF0.55859375
aa(lp1278
F32.1708885256
aF0.326171875
aa(lp1279
F9.76729480144
aF0.859375
aa(lp1280
F4.88305607822
aF5.734375
aa(lp1281
F5.50398439633
aF4.703125
aa(lp1282
F20.9498898923
aF0.46484375
aa(lp1283
F31.0670934313
aF0.318359375
aa(lp1284
F6.82052569752
aF3.5
aa(lp1285
F22.3532434259
aF0.4140625
aa(lp1286
F20.7419518252
aF0.47265625
aa(lp1287
F5.64296689953
aF4.5625
aa(lp1288
F29.1166778018
aF0.3095703125
aa(lp1289
F9.06323768653
aF0.96875
aa(lp1290
F5.4222433993
aF4.859375
aa(lp1291
F17.6821733951
aF0.62890625
aa(lp1292
F10.5260450004
aF0.7578125
aa(lp1293
F19.5369551793
aF0.533203125
aa(lp1294
F29.5556153593
aF0.3095703125
aa(lp1295
F27.838591924
aF0.3203125
aa(lp1296
F14.556576146
aF0.953125
aa(lp1297
F10.6847264446
aF0.73828125
aa(lp1298
F9.43217530115
aF0.91015625
aa(lp1299
F6.17300479642
aF4.0625
aa(lp1300
F30.6057085492
aF0.314453125
aa(lp1301
F32.0108343538
aF0.3251953125
aa(lp1302
F14.1274203031
aF1.015625
aa(lp1303
F8.84001619982
aF1.0078125
aa(lp1304
F15.9238599072
aF0.78125
aa(lp1305
F16.3259573245
aF0.755859375
aa(lp1306
F12.7862040493
aF1.24609375
aa(lp1307
F10.9000290315
aF1.1171875
aa(lp1308
F16.4896250466
aF0.73828125
aa(lp1309
F7.92135911049
aF2.7890625
aa(lp1310
F31.8515764715
aF0.3232421875
aa(lp1311
F8.1213833545
aF2.6328125
aa(lp1312
F18.6793742877
aF0.578125
aa(lp1313
F7.76489263656
aF2.8828125
aatp1314
Rp1315
aa(lp1316
S'up1'
p1317
ag0
((lp1318
(lp1319
F6.6194434907
aF5.984402656555176
aa(lp1320
F4.62237347694
aF10.695528030395508
aa(lp1321
F17.7705842621
aF0.9924497008323669
aa(lp1322
F23.9698552928
aF0.5842366218566895
aa(lp1323
F34.843361273
aF0.7031450271606445
aa(lp1324
F5.78545888511
aF7.318770408630371
aa(lp1325
F12.3475046552
aF2.124483108520508
aa(lp1326
F27.0178567275
aF0.49953553080558777
aa(lp1327
F13.4400922127
aF1.8191592693328857
aa(lp1328
F28.8276803068
aF0.4798568785190582
aa(lp1329
F24.2101530921
aF0.5750840902328491
aa(lp1330
F15.1491313306
aF1.4106518030166626
aa(lp1331
F13.3732260823
aF1.8442511558532715
aa(lp1332
F33.313900794
aF0.5352600812911987
aa(lp1333
F13.5748291371
aF1.7501566410064697
aa(lp1334
F7.16932828228
aF5.1172194480896
aa(lp1335
F13.7794713832
aF1.6999729871749878
aa(lp1336
F8.04077458925
aF4.443737506866455
aa(lp1337
F26.8834395298
aF0.5038553476333618
aa(lp1338
F4.33217737299
aF11.365884780883789
aa(lp1339
F7.42405019262
aF4.977275848388672
aa(lp1340
F30.4534413425
aF0.4901966452598572
aa(lp1341
F22.2420332596
aF0.6592790484428406
aa(lp1342
F29.8519104033
aF0.4801327586174011
aa(lp1343
F8.57939553147
aF2.7889673709869385
aa(lp1344
F8.75227464648
aF1.9861913919448853
aa(lp1345
F17.8594371834
aF0.9781822562217712
aa(lp1346
F10.1648924999
aF1.5360018014907837
aa(lp1347
F7.24120079831
aF5.09150505065918
aa(lp1348
F14.7025058219
aF1.4917954206466675
aa(lp1349
F14.776018351
aF1.4804192781448364
aa(lp1350
F7.02771628096
aF5.374366283416748
aa(lp1351
F15.2248769873
aF1.4044098854064941
aa(lp1352
F8.92863736222
aF1.9176344871520996
aa(lp1353
F24.0897045692
aF0.5797026753425598
aa(lp1354
F20.6387580351
aF0.745840311050415
aa(lp1355
F8.24381422375
aF4.18908166885376
aa(lp1356
F9.71870129496
aF1.6622161865234375
aa(lp1357
F6.29739393343
aF6.3772382736206055
aa(lp1358
F16.7382082054
aF1.1360116004943848
aa(lp1359
F9.62223835545
aF1.6916853189468384
aa(lp1360
F23.1474406845
aF0.6101687550544739
aa(lp1361
F5.99101275032
aF7.011689186096191
aa(lp1362
F30.0011699553
aF0.48591184616088867
aa(lp1363
F22.6902213647
aF0.6392534971237183
aa(lp1364
F10.5786752254
aF1.4316133260726929
aa(lp1365
F21.5862953693
aF0.693009614944458
aa(lp1366
F9.67034954722
aF1.6766481399536133
aa(lp1367
F19.8314772207
aF0.8043980002403259
aa(lp1368
F17.1608689377
aF1.0642306804656982
aa(lp1369
F7.80371709974
aF4.6092634201049805
aa(lp1370
F10.7918408272
aF1.46938157081604
aa(lp1371
F26.4841870988
aF0.511443555355072
aa(lp1372
F7.35036280549
aF4.991246700286865
aa(lp1373
F7.88194936367
aF4.583797931671143
aa(lp1374
F9.01814695177
aF1.8874355554580688
aa(lp1375
F31.3785410429
aF0.49499431252479553
aa(lp1376
F18.96096819
aF0.8876116275787354
aa(lp1377
F15.073762518
aF1.4293771982192993
aa(lp1378
F4.28917835993
aF11.725890159606934
aa(lp1379
F21.478900865
aF0.705275297164917
aa(lp1380
F7.61151676327
aF4.800254821777344
aa(lp1381
F9.91453799148
aF1.6023164987564087
aa(lp1382
F15.687370831
aF1.304540753364563
aa(lp1383
F4.98145210278
aF9.257281303405762
aa(lp1384
F5.05654811591
aF9.13566780090332
aa(lp1385
F8.45198086345
aF3.531076669692993
aa(lp1386
F5.93154897188
aF7.114049911499023
aa(lp1387
F23.0322792881
aF0.6193212866783142
aa(lp1388
F30.151175805
aF0.4861721694469452
aa(lp1389
F28.1176738081
aF0.4947495460510254
aa(lp1390
F12.1641288916
aF2.1496994495391846
aa(lp1391
F4.78660361901
aF9.900148391723633
aa(lp1392
F16.2447336562
aF1.2109134197235107
aa(lp1393
F24.5751241762
aF0.5599227547645569
aa(lp1394
F17.0754914803
aF1.076714277267456
aa(lp1395
F23.3794937774
aF0.6071179509162903
aa(lp1396
F6.36052530761
aF6.295166492462158
aa(lp1397
F4.37560745116
aF11.057308197021484
aa(lp1398
F4.39748548841
aF11.057308197021484
aa(lp1399
F8.88421628081
aF1.9327340126037598
aa(lp1400
F17.5942023832
aF1.006130337715149
aa(lp1401
F28.6842590117
aF0.48564374446868896
aa(lp1402
F7.68782221882
aF4.670194625854492
aa(lp1403
F9.15409664434
aF1.842137098312378
aa(lp1404
F5.67118173403
aF7.560113430023193
aa(lp1405
F10.8458000313
aF1.7414039373397827
aa(lp1406
F4.18353876364
aF11.983036994934082
aa(lp1407
F8.20280022263
aF4.265478610992432
aa(lp1408
F15.5316658805
aF1.3419917821884155
aa(lp1409
F5.47660138938
aF7.86868953704834
aa(lp1410
F21.6942268461
aF0.6868768334388733
aa(lp1411
F10.9545291766
aF2.054324150085449
aa(lp1412
F22.8036724716
aF0.6315246820449829
aa(lp1413
F4.26783916411
aF11.82874870300293
aa(lp1414
F4.73909419965
aF10.23714828491211
aa(lp1415
F14.9987686747
aF1.4481027126312256
aa(lp1416
F6.58651093602
aF6.017232894897461
aa(lp1417
F32.9832437751
aF0.5199669599533081
aa(lp1418
F6.85462832601
aF5.666083335876465
aa(lp1419
F17.2466732824
aF1.0517469644546509
aa(lp1420
F13.9176105838
aF1.6642833948135376
aa(lp1421
F6.75282859089
aF5.811515808105469
aa(lp1422
F5.36842493929
aF8.254409790039062
aa(lp1423
F27.2887107412
aF0.4962671995162964
aa(lp1424
F5.15844009188
aF8.802996635437012
aa(lp1425
F5.39526706398
aF8.10012149810791
aa(lp1426
F21.3720406616
aF0.7101401090621948
aa(lp1427
F19.6346399552
aF0.8290538787841797
aa(lp1428
F19.1510518961
aF0.8713151216506958
aa(lp1429
F27.5622800663
aF0.4962671995162964
aa(lp1430
F32.3317429682
aF0.5084083080291748
aa(lp1431
F20.2310914149
aF0.7693527340888977
aa(lp1432
F4.53107014514
aF10.748732566833496
aa(lp1433
F8.70873099153
aF2.0013532638549805
aa(lp1434
F27.1529460111
aF0.4947495460510254
aa(lp1435
F10.064000891
aF1.5648791790008545
aa(lp1436
F12.6592946207
aF2.029921531677246
aa(lp1437
F5.23620422107
aF8.511555671691895
aa(lp1438
F15.3010013722
aF1.3919262886047363
aa(lp1439
F4.46377813183
aF10.6458740234375
aa(lp1440
F13.1746170829
aF1.9069807529449463
aa(lp1441
F12.5336448313
aF2.099266529083252
aa(lp1442
F32.6558686915
aF0.5127553939819336
aa(lp1443
F24.9455972451
aF0.5492720603942871
aa(lp1444
F7.13365998236
aF5.1172194480896
aa(lp1445
F24.6979997971
aF0.5553581714630127
aa(lp1446
F26.0908640617
aF0.5220670104026794
aa(lp1447
F9.81613127544
aF1.6322664022445679
aa(lp1448
F27.4251542949
aF0.497784823179245
aa(lp1449
F5.4493546163
aF7.997262477874756
aa(lp1450
F33.6478726494
aF0.5533559322357178
aa(lp1451
F25.8318992715
aF0.521884560585022
aa(lp1452
F9.86521193182
aF1.6172914505004883
aa(lp1453
F19.4397563973
aF0.8506277799606323
aa(lp1454
F4.14201506264
aF12.445900917053223
aa(lp1455
F20.8456615844
aF0.7390058636665344
aa(lp1456
F18.8666350149
aF0.9022128582000732
aa(lp1457
F32.4934016831
aF0.5112338662147522
aa(lp1458
F25.4482635179
aF0.5325352549552917
aa(lp1459
F16.6549335377
aF1.154737114906311
aa(lp1460
F7.31379383631
aF5.0143609046936035
aa(lp1461
F6.08132801641
aF6.883738994598389
aa(lp1462
F6.68580341169
aF5.785800933837891
aa(lp1463
F17.3329066488
aF1.0309730768203735
aa(lp1464
F6.42428957382
aF6.320756435394287
aa(lp1465
F10.0139312348
aF1.579854130744934
aa(lp1466
F9.38524905587
aF1.7666397094726562
aa(lp1467
F5.6995376427
aF7.482969284057617
aa(lp1468
F5.5591618399
aF7.534398555755615
aa(lp1469
F4.71551661657
aF10.440763473510742
aa(lp1470
F17.9487343693
aF0.9781822562217712
aa(lp1471
F14.1980574046
aF1.5916645526885986
aa(lp1472
F18.1286704313
aF0.9695348143577576
aa(lp1473
F17.4195711821
aF1.0236587524414062
aa(lp1474
F11.7467731264
aF2.370342969894409
aa(lp1475
F4.8105366371
aF9.771574974060059
aa(lp1476
F11.6883314691
aF2.395559549331665
aa(lp1477
F32.819148035
aF0.515592634677887
aa(lp1478
F30.3019316841
aF0.4874255955219269
aa(lp1479
F7.53596867728
aF4.8877105712890625
aa(lp1480
F18.4019624042
aF0.9516491889953613
aa(lp1481
F16.5720731719
aF1.1672207117080688
aa(lp1482
F7.57364852066
aF4.7853498458862305
aa(lp1483
F10.2157169624
aF1.5274418592453003
aa(lp1484
F16.9060087427
aF1.1016815900802612
aa(lp1485
F23.8506022814
aF0.5888128876686096
aa(lp1486
F28.9718187083
aF0.47957319021224976
aa(lp1487
F33.9851925727
aF0.579413115978241
aa(lp1488
F30.9125307774
aF0.4917142689228058
aa(lp1489
F4.50852750761
aF10.6458740234375
aa(lp1490
F5.87267540098
aF7.251537322998047
aa(lp1491
F22.4650096431
aF0.6437280774116516
aa(lp1492
F9.33855627449
aF1.7817392349243164
aa(lp1493
F5.90203877799
aF7.174393177032471
aa(lp1494
F11.1196700733
aF2.3670849800109863
aa(lp1495
F4.24660613344
aF11.983036994934082
aa(lp1496
F11.9238571997
aF2.282085657119751
aa(lp1497
F9.29209579552
aF1.796838641166687
aa(lp1498
F7.64957434708
aF4.759759902954102
aa(lp1499
F5.2101534538
aF8.640129089355469
aa(lp1500
F4.66871277104
aF10.644597053527832
aa(lp1501
F7.4984762958
aF4.9021172523498535
aa(lp1502
F6.05107265314
aF6.960509300231934
aa(lp1503
F13.3066926192
aF1.863070011138916
aa(lp1504
F5.18423229234
aF8.691558837890625
aa(lp1505
F9.52673285854
aF1.7217596769332886
aa(lp1506
F29.4085724968
aF0.4768293797969818
aa(lp1507
F12.9789576736
aF1.9508914947509766
aa(lp1508
F28.5415512554
aF0.4874255955219269
aa(lp1509
F29.2622611908
aF0.47834312915802
aa(lp1510
F4.41947291585
aF10.800800323486328
aa(lp1511
F5.28869716839
aF8.33155345916748
aa(lp1512
F4.35383825986
aF11.211596488952637
aa(lp1513
F8.32645846134
aF4.120007038116455
aa(lp1514
F26.6166080343
aF0.5084083080291748
aa(lp1515
F10.6315686016
aF1.4182090759277344
aa(lp1516
F16.0834966027
aF1.229638934135437
aa(lp1517
F15.8446367235
aF1.26708984375
aa(lp1518
F20.0302877799
aF0.7828241586685181
aa(lp1519
F11.2873004896
aF2.4586005210876465
aa(lp1520
F6.99275251837
aF5.399512767791748
aa(lp1521
F18.2193137835
aF0.9670979976654053
aa(lp1522
F6.45641102169
aF6.218396186828613
aa(lp1523
F15.6093242099
aF1.3170244693756104
aa(lp1524
F19.732813155
aF0.8167259693145752
aa(lp1525
F10.4215687735
aF1.475029706954956
aa(lp1526
F4.080501
aF12.247797012329102
aa(lp1527
F4.44157028043
aF10.748732566833496
aa(lp1528
F31.2224288985
aF0.4934805631637573
aa(lp1529
F21.9117114703
aF0.6732497215270996
aa(lp1530
F4.90747135861
aF9.385854721069336
aa(lp1531
F11.6301805663
aF2.4144718647003174
aa(lp1532
F7.06285486237
aF5.271507740020752
aa(lp1533
F7.2774068023
aF5.065790176391602
aa(lp1534
F5.72803533091
aF7.486869812011719
aa(lp1535
F9.10855387497
aF1.857236623764038
aa(lp1536
F6.2348891695
aF6.50581169128418
aa(lp1537
F16.1639140858
aF1.223397135734558
aa(lp1538
F8.08097846219
aF4.303676605224609
aa(lp1539
F24.3312038575
aF0.5705735087394714
aa(lp1540
F6.71923242875
aF5.783364295959473
aa(lp1541
F8.62229250912
aF2.5188190937042236
aa(lp1542
F4.22547873975
aF11.777318954467773
aa(lp1543
F5.5869576491
aF7.431540012359619
aa(lp1544
F12.1036108374
aF2.1496994495391846
aa(lp1545
F31.6931109169
aF0.49953553080558777
aa(lp1546
F11.864534527
aF2.32621431350708
aa(lp1547
F19.9306346068
aF0.7951520681381226
aa(lp1548
F16.9905387864
aF1.0860769748687744
aa(lp1549
F12.9143857449
aF1.966880440711975
aa(lp1550
F13.043852462
aF1.9508914947509766
aa(lp1551
F5.00635936329
aF9.205852508544922
aa(lp1552
F5.81438617953
aF7.302966594696045
aa(lp1553
F9.47933617765
aF1.7367968559265137
aa(lp1554
F5.3417163575
aF8.280123710632324
aa(lp1555
F25.5755048355
aF0.529492199420929
aa(lp1556
F21.8026979804
aF0.6807439923286438
aa(lp1557
F4.93200871541
aF9.360139846801758
aa(lp1558
F18.0384780411
aF0.9788274765014648
aa(lp1559
F10.1143208955
aF1.5499043464660645
aa(lp1560
F6.26606361535
aF6.4286675453186035
aa(lp1561
F4.0602
aF11.943346977233887
aa(lp1562
F22.9176908339
aF0.6286149621009827
aa(lp1563
F34.4975235989
aF0.6348888874053955
aa(lp1564
F22.0212700276
aF0.6623454689979553
aa(lp1565
F6.2038698204
aF6.582955837249756
aa(lp1566
F4.83458932029
aF9.668716430664062
aa(lp1567
F13.8483687401
aF1.68319571018219
aa(lp1568
F34.1551185356
aF0.5963640809059143
aa(lp1569
F8.36809075365
aF3.93434476852417
aa(lp1570
F4.04
aF11.481261253356934
aa(lp1571
F34.3258941283
aF0.6148399114608765
aa(lp1572
F26.221318382
aF0.5190317630767822
aa(lp1573
F27.7000914667
aF0.497784823179245
aa(lp1574
F6.95796270485
aF5.477224826812744
aa(lp1575
F21.0546393417
aF0.7298066020011902
aa(lp1576
F4.95666875898
aF9.334425926208496
aa(lp1577
F4.100903505
aF12.343042373657227
aa(lp1578
F19.2468071556
aF0.8651356101036072
aa(lp1579
F29.7033934361
aF0.4801327586174011
aa(lp1580
F9.57436652283
aF1.7067224979400635
aa(lp1581
F26.3524249739
aF0.514478862285614
aa(lp1582
F6.02096781407
aF7.02849006652832
aa(lp1583
F16.8218992464
aF1.1172860860824585
aa(lp1584
F14.924147935
aF1.4481027126312256
aa(lp1585
F14.6293590268
aF1.5117840766906738
aa(lp1586
F34.6700112169
aF0.6659743785858154
aa(lp1587
F6.39232793415
aF6.3000946044921875
aa(lp1588
F4.55372549587
aF10.748732566833496
aa(lp1589
F11.0093018225
aF2.1614861488342285
aa(lp1590
F5.96120671674
aF7.0458197593688965
aa(lp1591
F11.1752684237
aF2.4574248790740967
aa(lp1592
F11.8055069921
aF2.3577349185943604
aa(lp1593
F5.75667550757
aF7.435938835144043
aa(lp1594
F33.4804702979
aF0.5413773655891418
aa(lp1595
F8.28503329487
aF4.138150691986084
aa(lp1596
F14.8498984428
aF1.4605863094329834
aa(lp1597
F23.263177888
aF0.6101687550544739
aa(lp1598
F8.40993120741
aF3.7800567150115967
aa(lp1599
F6.55374222489
aF6.064855575561523
aa(lp1600
F30.758737092
aF0.48867902159690857
aa(lp1601
F13.7109167992
aF1.7313377857208252
aa(lp1602
F6.52113654218
aF6.116035461425781
aa(lp1603
F13.2404901683
aF1.8881618976593018
aa(lp1604
F12.7225910938
aF2.0110092163085938
aa(lp1605
F4.31062425173
aF11.365884780883789
aa(lp1606
F19.3430411913
aF0.8598737716674805
aa(lp1607
F8.16199027128
aF4.2782111167907715
aa(lp1608
F15.7658076851
aF1.2920571565628052
aa(lp1609
F7.72626132991
aF4.657399654388428
aa(lp1610
F12.8501350695
aF1.9920967817306519
aa(lp1611
F10.318129525
aF1.4987201690673828
aa(lp1612
F5.03139116011
aF9.212438583374023
aa(lp1613
F6.11173465649
aF6.781378269195557
aa(lp1614
F12.4712883893
aF2.11187481880188
aa(lp1615
F15.454393911
aF1.3544753789901733
aa(lp1616
F5.31514065423
aF8.280123710632324
aa(lp1617
F13.6427032828
aF1.7376106977462769
aa(lp1618
F13.9871986367
aF1.647840976715088
aa(lp1619
F17.506669038
aF1.014296054840088
aa(lp1620
F4.59937659397
aF10.746459007263184
aa(lp1621
F14.4841553692
aF1.5306029319763184
aa(lp1622
F20.4339081063
aF0.7520042657852173
aa(lp1623
F23.4963912463
aF0.6010162234306335
aa(lp1624
F26.7496910745
aF0.5053730010986328
aa(lp1625
F33.8161120127
aF0.5671898126602173
aa(lp1626
F11.4574579554
aF2.420775890350342
aa(lp1627
F33.148159994
aF0.5276135206222534
aa(lp1628
F21.1599125385
aF0.7255110740661621
aa(lp1629
F11.343736992
aF2.439688205718994
aa(lp1630
F11.2311447658
aF2.4901211261749268
aa(lp1631
F8.79603601972
aF1.9629329442977905
aa(lp1632
F8.97328054903
aF1.902535080909729
aa(lp1633
F7.20517492369
aF5.1043620109558105
aa(lp1634
F31.5354337482
aF0.4947495460510254
aa(lp1635
F5.84345811043
aF7.242000102996826
aa(lp1636
F7.84273568524
aF4.634728908538818
aa(lp1637
F23.7319425685
aF0.5903382897377014
aa(lp1638
F12.0433938681
aF2.1938281059265137
aa(lp1639
F10.3697201726
aF1.4838075637817383
aa(lp1640
F9.19986712756
aF1.8270376920700073
aa(lp1641
F5.08183085649
aF9.000134468078613
aa(lp1642
F6.92334597497
aF5.502939701080322
aa(lp1643
F11.5147452452
aF2.408167600631714
aa(lp1644
F4.12140802252
aF12.445900917053223
aa(lp1645
F4.16272513795
aF12.29161262512207
aa(lp1646
F6.78659273385
aF5.732183933258057
aa(lp1647
F5.26238524217
aF8.434412002563477
aa(lp1648
F28.2582621771
aF0.49499431252479553
aa(lp1649
F16.4075871111
aF1.1828252077102661
aa(lp1650
F12.5963130554
aF2.074050188064575
aa(lp1651
F8.49424076777
aF3.276615858078003
aa(lp1652
F10.7381500768
aF1.3922209739685059
aa(lp1653
F22.1313763777
aF0.6623454689979553
aa(lp1654
F13.1090717243
aF1.9353599548339844
aa(lp1655
F28.399553488
aF0.4889393150806427
aa(lp1656
F4.64548534432
aF10.644597053527832
aa(lp1657
F25.0703252313
aF0.5462290048599243
aa(lp1658
F7.46117044358
aF4.913300514221191
aa(lp1659
F14.4120948947
aF1.555694818496704
aa(lp1660
F18.3104103524
aF0.9602421522140503
aa(lp1661
F5.53150431831
aF7.560113430023193
aa(lp1662
F20.3322468719
aF0.7581682801246643
aa(lp1663
F25.7033823597
aF0.5251023173332214
aa(lp1664
F4.57649412335
aF10.748732566833496
aa(lp1665
F16.0034792067
aF1.235880732536316
aa(lp1666
F18.7727711591
aF0.9061035513877869
aa(lp1667
F6.88890146764
aF5.576953887939453
aa(lp1668
F14.2690476916
aF1.5807867050170898
aa(lp1669
F6.14229332977
aF6.755788326263428
aa(lp1670
F24.8214897961
aF0.5523151159286499
aa(lp1671
F9.2458664632
aF1.8119381666183472
aa(lp1672
F11.0643483316
aF2.2500336170196533
aa(lp1673
F4.85876226689
aF9.411569595336914
aa(lp1674
F25.1956768574
aF0.543050229549408
aa(lp1675
F20.1304392188
aF0.7704961895942688
aa(lp1676
F10.2667955473
aF1.5124670267105103
aa(lp1677
F5.10724001077
aF8.98212718963623
aa(lp1678
F4.48609702249
aF10.69730281829834
aa(lp1679
F27.9777848836
aF0.49650806188583374
aa(lp1680
F18.5864420773
aF0.9331105351448059
aa(lp1681
F6.4886930768
aF6.222950458526611
aa(lp1682
F6.3288809031
aF6.3000946044921875
aa(lp1683
F7.09816913668
aF5.220381736755371
aa(lp1684
F12.2249495361
aF2.156003475189209
aa(lp1685
F24.4528598768
aF0.5660089254379272
aa(lp1686
F8.53671197161
aF3.031719207763672
aa(lp1687
F11.9834764857
aF2.2442610263824463
aa(lp1688
F9.96411068144
aF1.5948290824890137
aa(lp1689
F4.76278967065
aF10.080150604248047
aa(lp1690
F14.0571346299
aF1.6327629089355469
aa(lp1691
F8.66540397167
aF2.114694833755493
aa(lp1692
F11.400455677
aF2.4200634956359863
aa(lp1693
F12.2860742838
aF2.1307871341705322
aa(lp1694
F20.5360776468
aF0.7489222884178162
aa(lp1695
F22.5773346913
aF0.6439470052719116
aa(lp1696
F4.20445645746
aF12.034465789794922
aa(lp1697
F13.5072926737
aF1.7851611375808716
aa(lp1698
F10.4736766174
aF1.455335021018982
aa(lp1699
F7.38711461952
aF4.965780735015869
aa(lp1700
F8.00077073557
aF4.456470012664795
aa(lp1701
F5.61489243735
aF7.482969284057617
aa(lp1702
F11.5723189714
aF2.420775890350342
aa(lp1703
F7.96096590604
aF4.481935501098633
aa(lp1704
F25.9610587679
aF0.5205493569374084
aa(lp1705
F21.2657121011
aF0.7175409197807312
aa(lp1706
F25.3216552417
aF0.5370998382568359
aa(lp1707
F14.3403929301
aF1.566697359085083
aa(lp1708
F15.3775063791
aF1.3794426918029785
aa(lp1709
F6.65254070815
aF5.984402656555176
aa(lp1710
F12.4092421784
aF2.11187481880188
aa(lp1711
F18.4939722162
aF0.9385592341423035
aa(lp1712
F23.6138732025
aF0.5964399576187134
aa(lp1713
F5.13277621083
aF8.897275924682617
aa(lp1714
F4.6920563349
aF10.593666076660156
aa(lp1715
F19.0557730309
aF0.8814476728439331
aa(lp1716
F32.1708885256
aF0.5068906545639038
aa(lp1717
F9.76729480144
aF1.647241234779358
aa(lp1718
F4.88305607822
aF9.437284469604492
aa(lp1719
F5.50398439633
aF7.740116119384766
aa(lp1720
F20.9498898923
aF0.731659471988678
aa(lp1721
F31.0670934313
aF0.4934805631637573
aa(lp1722
F6.82052569752
aF5.732183933258057
aa(lp1723
F22.3532434259
aF0.6500798463821411
aa(lp1724
F20.7419518252
aF0.7420722842216492
aa(lp1725
F5.64296689953
aF7.508683681488037
aa(lp1726
F29.1166778018
aF0.4786229133605957
aa(lp1727
F9.06323768653
aF1.8723360300064087
aa(lp1728
F5.4222433993
aF7.997262477874756
aa(lp1729
F17.6821733951
aF0.9999196529388428
aa(lp1730
F10.5260450004
aF1.4465259313583374
aa(lp1731
F19.5369551793
aF0.841381847858429
aa(lp1732
F29.5556153593
aF0.4798568785190582
aa(lp1733
F27.838591924
aF0.497784823179245
aa(lp1734
F14.556576146
aF1.5230045318603516
aa(lp1735
F10.6847264446
aF1.4033586978912354
aa(lp1736
F9.43217530115
aF1.7518341541290283
aa(lp1737
F6.17300479642
aF6.685814380645752
aa(lp1738
F30.6057085492
aF0.48867902159690857
aa(lp1739
F32.0108343538
aF0.5053730010986328
aa(lp1740
F14.1274203031
aF1.6309703588485718
aa(lp1741
F8.84001619982
aF1.94783353805542
aa(lp1742
F15.9238599072
aF1.2483644485473633
aa(lp1743
F16.3259573245
aF1.2077925205230713
aa(lp1744
F12.7862040493
aF2.0110092163085938
aa(lp1745
F10.9000290315
aF1.9098495244979858
aa(lp1746
F16.4896250466
aF1.1797043085098267
aa(lp1747
F7.92135911049
aF4.545599460601807
aa(lp1748
F31.8515764715
aF0.5023377537727356
aa(lp1749
F8.1213833545
aF4.3119330406188965
aa(lp1750
F18.6793742877
aF0.9168763756752014
aa(lp1751
F7.76489263656
aF4.698392868041992
aatp1752
Rp1753
aa(lp1754
S'up2'
p1755
ag0
((lp1756
(lp1757
F6.6194434907
aF9.667935371398926
aa(lp1758
F4.62237347694
aF17.27886390686035
aa(lp1759
F17.7705842621
aF1.5455766916275024
aa(lp1760
F23.9698552928
aF0.899684488773346
aa(lp1761
F34.843361273
aF1.1012593507766724
aa(lp1762
F5.78545888511
aF11.77638053894043
aa(lp1763
F12.3475046552
aF3.3719351291656494
aa(lp1764
F27.0178567275
aF0.7660224437713623
aa(lp1765
F13.4400922127
aF2.873232126235962
aa(lp1766
F28.8276803068
aF0.7358458638191223
aa(lp1767
F24.2101530921
aF0.8855901956558228
aa(lp1768
F15.1491313306
aF2.216761350631714
aa(lp1769
F13.3732260823
aF2.912862777709961
aa(lp1770
F33.313900794
aF0.8227513432502747
aa(lp1771
F13.5748291371
aF2.764247417449951
aa(lp1772
F7.16932828228
aF8.235111236572266
aa(lp1773
F13.7794713832
aF2.684985876083374
aa(lp1774
F8.04077458925
aF7.118841648101807
aa(lp1775
F26.8834395298
aF0.7712405323982239
aa(lp1776
F4.33217737299
aF18.366323471069336
aa(lp1777
F7.42405019262
aF8.00876235961914
aa(lp1778
F30.4534413425
aF0.7466695308685303
aa(lp1779
F22.2420332596
aF1.0115280151367188
aa(lp1780
F29.8519104033
aF0.7339893579483032
aa(lp1781
F8.57939553147
aF4.7237868309021
aa(lp1782
F8.75227464648
aF3.103327512741089
aa(lp1783
F17.8594371834
aF1.5291181802749634
aa(lp1784
F10.1648924999
aF2.4398205280303955
aa(lp1785
F7.24120079831
aF8.160008430480957
aa(lp1786
F14.7025058219
aF2.3442740440368652
aa(lp1787
F14.776018351
aF2.338216543197632
aa(lp1788
F7.02771628096
aF8.61334228515625
aa(lp1789
F15.2248769873
aF2.2069525718688965
aa(lp1790
F8.92863736222
aF3.00850772857666
aa(lp1791
F24.0897045692
aF0.8943490982055664
aa(lp1792
F20.6387580351
aF1.150979995727539
aa(lp1793
F8.24381422375
aF6.767554759979248
aa(lp1794
F9.71870129496
aF2.6293749809265137
aa(lp1795
F6.29739393343
aF10.220616340637207
aa(lp1796
F16.7382082054
aF1.7851794958114624
aa(lp1797
F9.62223835545
aF2.664961814880371
aa(lp1798
F23.1474406845
aF0.9396182298660278
aa(lp1799
F5.99101275032
aF11.282266616821289
aa(lp1800
F30.0011699553
aF0.7378290295600891
aa(lp1801
F22.6902213647
aF0.982600212097168
aa(lp1802
F10.5786752254
aF2.2740073204040527
aa(lp1803
F21.5862953693
aF1.073425054550171
aa(lp1804
F9.67034954722
aF2.6412734985351562
aa(lp1805
F19.8314772207
aF1.2529981136322021
aa(lp1806
F17.1608689377
aF1.6648716926574707
aa(lp1807
F7.80371709974
aF7.446367263793945
aa(lp1808
F10.7918408272
aF2.4039433002471924
aa(lp1809
F26.4841870988
aF0.7828556299209595
aa(lp1810
F7.35036280549
aF8.063469886779785
aa(lp1811
F7.88194936367
aF7.374222278594971
aa(lp1812
F9.01814695177
aF2.961129665374756
aa(lp1813
F31.3785410429
aF0.7553394436836243
aa(lp1814
F18.96096819
aF1.3826185464859009
aa(lp1815
F15.073762518
aF2.246187210083008
aa(lp1816
F4.28917835993
aF18.948062896728516
aa(lp1817
F21.478900865
aF1.092423677444458
aa(lp1818
F7.61151676327
aF7.754918575286865
aa(lp1819
F9.91453799148
aF2.53462290763855
aa(lp1820
F15.687370831
aF2.050013780593872
aa(lp1821
F4.98145210278
aF14.897687911987305
aa(lp1822
F5.05654811591
aF14.699888229370117
aa(lp1823
F8.45198086345
aF5.797819137573242
aa(lp1824
F5.93154897188
aF11.446971893310547
aa(lp1825
F23.0322792881
aF0.9537124633789062
aa(lp1826
F30.151175805
aF0.7432219386100769
aa(lp1827
F28.1176738081
aF0.757302463054657
aa(lp1828
F12.1641288916
aF3.4119579792022705
aa(lp1829
F4.78660361901
aF15.932249069213867
aa(lp1830
F16.2447336562
aF1.902883529663086
aa(lp1831
F24.5751241762
aF0.859670102596283
aa(lp1832
F17.0754914803
aF1.676804780960083
aa(lp1833
F23.3794937774
aF0.9349201321601868
aa(lp1834
F6.36052530761
aF10.129334449768066
aa(lp1835
F4.37560745116
aF17.940919876098633
aa(lp1836
F4.39748548841
aF17.867691040039062
aa(lp1837
F8.88421628081
aF3.0321967601776123
aa(lp1838
F17.5942023832
aF1.5728071928024292
aa(lp1839
F28.6842590117
aF0.7433643937110901
aa(lp1840
F7.68782221882
aF7.514648914337158
aa(lp1841
F9.15409664434
aF2.8900625705718994
aa(lp1842
F5.67118173403
aF12.116375923156738
aa(lp1843
F10.8458000313
aF2.96979022026062
aa(lp1844
F4.18353876364
aF19.363590240478516
aa(lp1845
F8.20280022263
aF6.8332719802856445
aa(lp1846
F15.5316658805
aF2.108865737915039
aa(lp1847
F5.47660138938
aF12.715147018432617
aa(lp1848
F21.6942268461
aF1.0639257431030273
aa(lp1849
F10.9545291766
aF3.383439779281616
aa(lp1850
F22.8036724716
aF0.9725048542022705
aa(lp1851
F4.26783916411
aF18.957595825195312
aa(lp1852
F4.73909419965
aF16.538339614868164
aa(lp1853
F14.9987686747
aF2.275613307952881
aa(lp1854
F6.58651093602
aF9.643646240234375
aa(lp1855
F32.9832437751
aF0.7992441654205322
aa(lp1856
F6.85462832601
aF9.15368366241455
aa(lp1857
F17.2466732824
aF1.6379224061965942
aa(lp1858
F13.9176105838
aF2.6185221672058105
aa(lp1859
F6.75282859089
aF9.313949584960938
aa(lp1860
F5.36842493929
aF13.229104995727539
aa(lp1861
F27.2887107412
aF0.7596254944801331
aa(lp1862
F5.15844009188
aF14.16459846496582
aa(lp1863
F5.39526706398
aF13.08912181854248
aa(lp1864
F21.3720406616
aF1.0979180335998535
aa(lp1865
F19.6346399552
aF1.291404128074646
aa(lp1866
F19.1510518961
aF1.3546887636184692
aa(lp1867
F27.5622800663
aF0.7596254944801331
aa(lp1868
F32.3317429682
aF0.7782095670700073
aa(lp1869
F20.2310914149
aF1.1961613893508911
aa(lp1870
F4.53107014514
aF17.297870635986328
aa(lp1871
F8.70873099153
aF3.127017021179199
aa(lp1872
F27.1529460111
aF0.757302463054657
aa(lp1873
F10.064000891
aF2.475402593612671
aa(lp1874
F12.6592946207
aF3.221848964691162
aa(lp1875
F5.23620422107
aF13.697596549987793
aa(lp1876
F15.3010013722
aF2.187335252761841
aa(lp1877
F4.46377813183
aF17.273351669311523
aa(lp1878
F13.1746170829
aF3.011939764022827
aa(lp1879
F12.5336448313
aF3.3029086589813232
aa(lp1880
F32.6558686915
aF0.7910646796226501
aa(lp1881
F24.9455972451
aF0.8392336964607239
aa(lp1882
F7.13365998236
aF8.269001007080078
aa(lp1883
F24.6979997971
aF0.8526619076728821
aa(lp1884
F26.0908640617
aF0.7991166710853577
aa(lp1885
F9.81613127544
aF2.5819990634918213
aa(lp1886
F27.4251542949
aF0.7619484663009644
aa(lp1887
F5.4493546163
aF12.816983222961426
aa(lp1888
F33.6478726494
aF0.8555205464363098
aa(lp1889
F25.8318992715
aF0.7973882555961609
aa(lp1890
F9.86521193182
aF2.5583109855651855
aa(lp1891
F19.4397563973
aF1.3250094652175903
aa(lp1892
F4.14201506264
aF20.111539840698242
aa(lp1893
F20.8456615844
aF1.1446701288223267
aa(lp1894
F18.8666350149
aF1.4027273654937744
aa(lp1895
F32.4934016831
aF0.7811150550842285
aa(lp1896
F25.4482635179
aF0.8136614561080933
aa(lp1897
F16.6549335377
aF1.7983124256134033
aa(lp1898
F7.31379383631
aF8.036372184753418
aa(lp1899
F6.08132801641
aF11.076386451721191
aa(lp1900
F6.68580341169
aF9.311055183410645
aa(lp1901
F17.3329066488
aF1.6116420030593872
aa(lp1902
F6.42428957382
aF10.170511245727539
aa(lp1903
F10.0139312348
aF2.4990906715393066
aa(lp1904
F9.38524905587
aF2.7716174125671387
aa(lp1905
F5.6995376427
aF11.9927396774292
aa(lp1906
F5.5591618399
aF12.17496109008789
aa(lp1907
F4.71551661657
aF16.79987144470215
aa(lp1908
F17.9487343693
aF1.5291181802749634
aa(lp1909
F14.1980574046
aF2.5236709117889404
aa(lp1910
F18.1286704313
aF1.5184766054153442
aa(lp1911
F17.4195711821
aF1.601401448249817
aa(lp1912
F11.7467731264
aF3.7457847595214844
aa(lp1913
F4.8105366371
aF15.725337028503418
aa(lp1914
F11.6883314691
aF3.8021819591522217
aa(lp1915
F32.819148035
aF0.7939774394035339
aa(lp1916
F30.3019316841
aF0.7437899112701416
aa(lp1917
F7.53596867728
aF7.864645957946777
aa(lp1918
F18.4019624042
aF1.4795892238616943
aa(lp1919
F16.5720731719
aF1.8177536725997925
aa(lp1920
F7.57364852066
aF7.699941158294678
aa(lp1921
F10.2157169624
aF2.416182518005371
aa(lp1922
F16.9060087427
aF1.7156872749328613
aa(lp1923
F23.8506022814
aF0.9067316055297852
aa(lp1924
F28.9718187083
aF0.7304878234863281
aa(lp1925
F33.9851925727
aF0.8941497206687927
aa(lp1926
F30.9125307774
aF0.7526564002037048
aa(lp1927
F4.50852750761
aF17.20284652709961
aa(lp1928
F5.87267540098
aF11.621829986572266
aa(lp1929
F22.4650096431
aF0.9912972450256348
aa(lp1930
F9.33855627449
aF2.795306444168091
aa(lp1931
F5.90203877799
aF11.498193740844727
aa(lp1932
F11.1196700733
aF3.8087944984436035
aa(lp1933
F4.24660613344
aF19.20486831665039
aa(lp1934
F11.9238571997
aF3.6220786571502686
aa(lp1935
F9.29209579552
aF2.818995475769043
aa(lp1936
F7.64957434708
aF7.6587653160095215
aa(lp1937
F5.2101534538
aF13.904508590698242
aa(lp1938
F4.66871277104
aF17.124582290649414
aa(lp1939
F7.4984762958
aF7.919478893280029
aa(lp1940
F6.05107265314
aF11.199914932250977
aa(lp1941
F13.3066926192
aF2.9425859451293945
aa(lp1942
F5.18423229234
aF13.987273216247559
aa(lp1943
F9.52673285854
aF2.712338924407959
aa(lp1944
F29.4085724968
aF0.727620542049408
aa(lp1945
F12.9789576736
aF3.081293821334839
aa(lp1946
F28.5415512554
aF0.7474522590637207
aa(lp1947
F29.2622611908
aF0.7263363599777222
aa(lp1948
F4.41947291585
aF17.524852752685547
aa(lp1949
F5.28869716839
aF13.463096618652344
aa(lp1950
F4.35383825986
aF18.117006301879883
aa(lp1951
F8.32645846134
aF6.629361152648926
aa(lp1952
F26.6166080343
aF0.7782095670700073
aa(lp1953
F10.6315686016
aF2.2621171474456787
aa(lp1954
F16.0834966027
aF1.932309627532959
aa(lp1955
F15.8446367235
aF1.9911617040634155
aa(lp1956
F20.0302877799
aF1.2193927764892578
aa(lp1957
F11.2873004896
aF3.9362075328826904
aa(lp1958
F6.99275251837
aF8.688169479370117
aa(lp1959
F18.2193137835
aF1.5036084651947021
aa(lp1960
F6.45641102169
aF10.005805969238281
aa(lp1961
F15.6093242099
aF2.0696310997009277
aa(lp1962
F19.732813155
aF1.2722011804580688
aa(lp1963
F10.4215687735
aF2.3332743644714355
aa(lp1964
F4.080501
aF19.8726806640625
aa(lp1965
F4.44157028043
aF17.440242767333984
aa(lp1966
F31.2224288985
aF0.7567373514175415
aa(lp1967
F21.9117114703
aF1.0408833026885986
aa(lp1968
F4.90747135861
aF15.166760444641113
aa(lp1969
F11.6301805663
aF3.8321993350982666
aa(lp1970
F7.06285486237
aF8.448493957519531
aa(lp1971
F7.2774068023
aF8.118796348571777
aa(lp1972
F5.72803533091
aF12.09520435333252
aa(lp1973
F9.10855387497
aF2.9137516021728516
aa(lp1974
F6.2348891695
aF10.46976375579834
aa(lp1975
F16.1639140858
aF1.9225009679794312
aa(lp1976
F8.08097846219
aF6.952685356140137
aa(lp1977
F24.3312038575
aF0.8760225176811218
aa(lp1978
F6.71923242875
aF9.305811882019043
aa(lp1979
F8.62229250912
aF4.286042213439941
aa(lp1980
F4.22547873975
aF19.03116798400879
aa(lp1981
F5.5869576491
aF12.057967185974121
aa(lp1982
F12.1036108374
aF3.4416582584381104
aa(lp1983
F31.6931109169
aF0.7660224437713623
aa(lp1984
F11.864534527
aF3.6921188831329346
aa(lp1985
F19.9306346068
aF1.2385958433151245
aa(lp1986
F16.9905387864
aF1.6913857460021973
aa(lp1987
F12.9143857449
aF3.0946171283721924
aa(lp1988
F13.043852462
aF3.081293821334839
aa(lp1989
F5.00635936329
aF14.814923286437988
aa(lp1990
F5.81438617953
aF11.704255104064941
aa(lp1991
F9.47933617765
aF2.736027479171753
aa(lp1992
F5.3417163575
aF13.37999153137207
aa(lp1993
F25.5755048355
aF0.8090119957923889
aa(lp1994
F21.8026979804
aF1.0544264316558838
aa(lp1995
F4.93200871541
aF15.125207901000977
aa(lp1996
F18.0384780411
aF1.5260155200958252
aa(lp1997
F10.1143208955
aF2.451714515686035
aa(lp1998
F6.26606361535
aF10.345616340637207
aa(lp1999
F4.0602
aF19.45538330078125
aa(lp2000
F22.9176908339
aF0.9644802212715149
aa(lp2001
F34.4975235989
aF0.9889563322067261
aa(lp2002
F22.0212700276
aF1.0259283781051636
aa(lp2003
F6.2038698204
aF10.550313949584961
aa(lp2004
F4.83458932029
aF15.623841285705566
aa(lp2005
F13.8483687401
aF2.64827823638916
aa(lp2006
F34.1551185356
aF0.9203083515167236
aa(lp2007
F8.36809075365
aF6.357573509216309
aa(lp2008
F4.04
aF18.842885971069336
aa(lp2009
F34.3258941283
aF0.9550548791885376
aa(lp2010
F26.221318382
aF0.7944706678390503
aa(lp2011
F27.7000914667
aF0.7619484663009644
aa(lp2012
F6.95796270485
aF8.778190612792969
aa(lp2013
F21.0546393417
aF1.1304210424423218
aa(lp2014
F4.95666875898
aF15.08365535736084
aa(lp2015
F4.100903505
aF19.945329666137695
aa(lp2016
F19.2468071556
aF1.345081090927124
aa(lp2017
F29.7033934361
aF0.7303628325462341
aa(lp2018
F9.57436652283
aF2.688650369644165
aa(lp2019
F26.3524249739
aF0.7875016331672668
aa(lp2020
F6.02096781407
aF11.354681968688965
aa(lp2021
F16.8218992464
aF1.7478710412979126
aa(lp2022
F14.924147935
aF2.275613307952881
aa(lp2023
F14.6293590268
aF2.3877549171447754
aa(lp2024
F34.6700112169
aF1.0334969758987427
aa(lp2025
F6.39232793415
aF10.096980094909668
aa(lp2026
F4.55372549587
aF17.297870635986328
aa(lp2027
F11.0093018225
aF3.5210015773773193
aa(lp2028
F5.96120671674
aF11.292133331298828
aa(lp2029
F11.1752684237
aF3.920158624649048
aa(lp2030
F11.8055069921
aF3.709573268890381
aa(lp2031
F5.75667550757
aF12.012924194335938
aa(lp2032
F33.4804702979
aF0.8361374735832214
aa(lp2033
F8.28503329487
aF6.657284259796143
aa(lp2034
F14.8498984428
aF2.305535078048706
aa(lp2035
F23.263177888
aF0.9396182298660278
aa(lp2036
F8.40993120741
aF6.108256816864014
aa(lp2037
F6.55374222489
aF9.758749008178711
aa(lp2038
F30.758737092
aF0.7480103969573975
aa(lp2039
F13.7109167992
aF2.7345242500305176
aa(lp2040
F6.52113654218
aF9.84110164642334
aa(lp2041
F13.2404901683
aF2.9822168350219727
aa(lp2042
F12.7225910938
aF3.1918318271636963
aa(lp2043
F4.31062425173
aF18.366323471069336
aa(lp2044
F19.3430411913
aF1.339411735534668
aa(lp2045
F8.16199027128
aF6.8536696434021
aa(lp2046
F15.7658076851
aF2.0303964614868164
aa(lp2047
F7.72626132991
aF7.494060516357422
aa(lp2048
F12.8501350695
aF3.134291648864746
aa(lp2049
F10.318129525
aF2.380601406097412
aa(lp2050
F5.03139116011
aF14.823416709899902
aa(lp2051
F6.11173465649
aF10.91168212890625
aa(lp2052
F12.4712883893
aF3.3227460384368896
aa(lp2053
F15.454393911
aF2.128483295440674
aa(lp2054
F5.31514065423
aF13.37999153137207
aa(lp2055
F13.6427032828
aF2.744431972503662
aa(lp2056
F13.9871986367
aF2.612741708755493
aa(lp2057
F17.506669038
aF1.5867544412612915
aa(lp2058
F4.59937659397
aF17.361143112182617
aa(lp2059
F14.4841553692
aF2.417478084564209
aa(lp2060
F20.4339081063
aF1.1659386157989502
aa(lp2061
F23.4963912463
aF0.9255239367485046
aa(lp2062
F26.7496910745
aF0.7735635638237
aa(lp2063
F33.8161120127
aF0.876908540725708
aa(lp2064
F11.4574579554
aF3.842205047607422
aa(lp2065
F33.148159994
aF0.8109977841377258
aa(lp2066
F21.1599125385
aF1.1216825246810913
aa(lp2067
F11.343736992
aF3.90592885017395
aa(lp2068
F11.2311447658
aF3.9866716861724854
aa(lp2069
F8.79603601972
aF3.0795748233795166
aa(lp2070
F8.97328054903
aF2.984818696975708
aa(lp2071
F7.20517492369
aF8.180614471435547
aa(lp2072
F31.5354337482
aF0.757302463054657
aa(lp2073
F5.84345811043
aF11.652852058410645
aa(lp2074
F7.84273568524
aF7.424808979034424
aa(lp2075
F23.7319425685
aF0.9090806245803833
aa(lp2076
F12.0433938681
aF3.4819982051849365
aa(lp2077
F10.3697201726
aF2.3569140434265137
aa(lp2078
F9.19986712756
aF2.8663735389709473
aa(lp2079
F5.08183085649
aF14.424257278442383
aa(lp2080
F6.92334597497
aF8.819402694702148
aa(lp2081
F11.5147452452
aF3.8221933841705322
aa(lp2082
F4.12140802252
aF20.111539840698242
aa(lp2083
F4.16272513795
aF19.780818939208984
aa(lp2084
F6.78659273385
aF9.223459243774414
aa(lp2085
F5.26238524217
aF13.629307746887207
aa(lp2086
F28.2582621771
aF0.7516202330589294
aa(lp2087
F16.4075871111
aF1.858744502067566
aa(lp2088
F12.5963130554
aF3.2632341384887695
aa(lp2089
F8.49424076777
aF5.419137954711914
aa(lp2090
F10.7381500768
aF2.2206647396087646
aa(lp2091
F22.1313763777
aF1.0259283781051636
aa(lp2092
F13.1090717243
aF3.0450239181518555
aa(lp2093
F28.399553488
aF0.7460997700691223
aa(lp2094
F4.64548534432
aF17.196582794189453
aa(lp2095
F25.0703252313
aF0.8345841765403748
aa(lp2096
F7.46117044358
aF7.905822277069092
aa(lp2097
F14.4120948947
aF2.457108736038208
aa(lp2098
F18.3104103524
aF1.4901584386825562
aa(lp2099
F5.53150431831
aF12.216513633728027
aa(lp2100
F20.3322468719
aF1.180986762046814
aa(lp2101
F25.7033823597
aF0.8037627339363098
aa(lp2102
F4.57649412335
aF17.2266845703125
aa(lp2103
F16.0034792067
aF1.9421182870864868
aa(lp2104
F18.7727711591
aF1.4114230871200562
aa(lp2105
F6.88890146764
aF9.009693145751953
aa(lp2106
F14.2690476916
aF2.496739625930786
aa(lp2107
F6.14229332977
aF10.870505332946777
aa(lp2108
F24.8214897961
aF0.843883216381073
aa(lp2109
F9.2458664632
aF2.842684507369995
aa(lp2110
F11.0643483316
aF3.650768756866455
aa(lp2111
F4.85876226689
aF15.20831298828125
aa(lp2112
F25.1956768574
aF0.8282271027565002
aa(lp2113
F20.1304392188
aF1.2001897096633911
aa(lp2114
F10.2667955473
aF2.3924944400787354
aa(lp2115
F5.10724001077
aF14.452831268310547
aa(lp2116
F4.48609702249
aF17.285951614379883
aa(lp2117
F27.9777848836
aF0.7613798975944519
aa(lp2118
F18.5864420773
aF1.4507659673690796
aa(lp2119
F6.4886930768
aF9.973343849182129
aa(lp2120
F6.3288809031
aF10.180428504943848
aa(lp2121
F7.09816913668
aF8.399935722351074
aa(lp2122
F12.2249495361
aF3.421963691711426
aa(lp2123
F24.4528598768
aF0.8648059368133545
aa(lp2124
F8.53671197161
aF5.042296886444092
aa(lp2125
F11.9834764857
aF3.562044143676758
aa(lp2126
F9.96411068144
aF2.5227787494659424
aa(lp2127
F4.76278967065
aF16.155168533325195
aa(lp2128
F14.0571346299
aF2.5689289569854736
aa(lp2129
F8.66540397167
aF3.3871843814849854
aa(lp2130
F11.400455677
aF3.8592751026153564
aa(lp2131
F12.2860742838
aF3.3819408416748047
aa(lp2132
F20.5360776468
aF1.1557360887527466
aa(lp2133
F22.5773346913
aF0.9880041480064392
aa(lp2134
F4.20445645746
aF19.44669532775879
aa(lp2135
F13.5072926737
aF2.830470085144043
aa(lp2136
F10.4736766174
aF2.3213348388671875
aa(lp2137
F7.38711461952
aF8.022329330444336
aa(lp2138
F8.00077073557
aF7.139239311218262
aa(lp2139
F5.61489243735
aF12.091856002807617
aa(lp2140
F11.5723189714
aF3.842205047607422
aa(lp2141
F7.96096590604
aF7.240666389465332
aa(lp2142
F25.9610587679
aF0.7967936992645264
aa(lp2143
F21.2657121011
aF1.1114224195480347
aa(lp2144
F25.3216552417
aF0.8206357359886169
aa(lp2145
F14.3403929301
aF2.484083890914917
aa(lp2146
F15.3775063791
aF2.167717933654785
aa(lp2147
F6.65254070815
aF9.667935371398926
aa(lp2148
F12.4092421784
aF3.351923704147339
aa(lp2149
F18.4939722162
aF1.4565097093582153
aa(lp2150
F23.6138732025
aF0.9184768199920654
aa(lp2151
F5.13277621083
aF14.259408950805664
aa(lp2152
F4.6920563349
aF17.114303588867188
aa(lp2153
F19.0557730309
aF1.3730170726776123
aa(lp2154
F32.1708885256
aF0.775886595249176
aa(lp2155
F9.76729480144
aF2.605687141418457
aa(lp2156
F4.88305607822
aF15.249866485595703
aa(lp2157
F5.50398439633
aF12.507383346557617
aa(lp2158
F20.9498898923
aF1.1311882734298706
aa(lp2159
F31.0670934313
aF0.7530295252799988
aa(lp2160
F6.82052569752
aF9.223459243774414
aa(lp2161
F22.3532434259
aF1.0021716356277466
aa(lp2162
F20.7419518252
aF1.1494197845458984
aa(lp2163
F5.64296689953
aF12.133408546447754
aa(lp2164
F29.1166778018
aF0.731681227684021
aa(lp2165
F9.06323768653
aF2.9374406337738037
aa(lp2166
F5.4222433993
aF12.922910690307617
aa(lp2167
F17.6821733951
aF1.5630985498428345
aa(lp2168
F10.5260450004
aF2.2976949214935303
aa(lp2169
F19.5369551793
aF1.3106071949005127
aa(lp2170
F29.5556153593
aF0.7286348938941956
aa(lp2171
F27.838591924
aF0.7619484663009644
aa(lp2172
F14.556576146
aF2.414806604385376
aa(lp2173
F10.6847264446
aF2.2384300231933594
aa(lp2174
F9.43217530115
aF2.759716033935547
aa(lp2175
F6.17300479642
aF10.71516227722168
aa(lp2176
F30.6057085492
aF0.7480103969573975
aa(lp2177
F32.0108343538
aF0.7735635638237
aa(lp2178
F14.1274203031
aF2.5760011672973633
aa(lp2179
F8.84001619982
aF3.0558857917785645
aa(lp2180
F15.9238599072
aF1.961735725402832
aa(lp2181
F16.3259573245
aF1.8809375762939453
aa(lp2182
F12.7862040493
aF3.1640477180480957
aa(lp2183
F10.9000290315
aF3.199664831161499
aa(lp2184
F16.4896250466
aF1.8455175161361694
aa(lp2185
F7.92135911049
aF7.282024383544922
aa(lp2186
F31.8515764715
aF0.7689175009727478
aa(lp2187
F8.1213833545
aF6.938182353973389
aa(lp2188
F18.6793742877
aF1.4228609800338745
aa(lp2189
F7.76489263656
aF7.558578014373779
aatp2190
Rp2191
aa(lp2192
S'obs'
p2193
ag0
((lp2194
(lp2195
F6.6194434907
aF2.02476863317254
aa(lp2196
F4.62237347694
aF4.331169784265673
aa(lp2197
F17.7705842621
aF0.48392809144372084
aa(lp2198
F23.9698552928
aF0.3988577626313336
aa(lp2199
F34.843361273
aF0.22419428234991529
aa(lp2200
F5.78545888511
aF6.354663374455
aa(lp2201
F12.3475046552
aF0.9633204058141243
aa(lp2202
F27.0178567275
aF0.2555695172625982
aa(lp2203
F13.4400922127
aF1.267085979315268
aa(lp2204
F28.8276803068
aF0.26933301589007536
aa(lp2205
F24.2101530921
aF0.3336395222666599
aa(lp2206
F15.1491313306
aF1.0947731186237395
aa(lp2207
F13.3732260823
aF1.2611902427704986
aa(lp2208
F33.313900794
aF0.45109462406900735
aa(lp2209
F13.5748291371
aF0.7462779542142249
aa(lp2210
F7.16932828228
aF4.403716419401874
aa(lp2211
F13.7794713832
aF1.295235004386568
aa(lp2212
F8.04077458925
aF2.2164055386064843
aa(lp2213
F26.8834395298
aF0.32640041078748416
aa(lp2214
F4.33217737299
aF8.427747132580855
aa(lp2215
F7.42405019262
aF2.6202442429838415
aa(lp2216
F30.4534413425
aF0.5788932336314077
aa(lp2217
F22.2420332596
aF0.5227236437641377
aa(lp2218
F29.8519104033
aF0.3433944384178159
aa(lp2219
F8.57939553147
aF2.527858136174954
aa(lp2220
F8.75227464648
aF0.9730280951803362
aa(lp2221
F17.8594371834
aF0.4155607600687974
aa(lp2222
F10.1648924999
aF0.7452064622540773
aa(lp2223
F7.24120079831
aF3.4780923992657096
aa(lp2224
F14.7025058219
aF1.0249411793747643
aa(lp2225
F14.776018351
aF1.0055962886470533
aa(lp2226
F7.02771628096
aF4.542536955379028
aa(lp2227
F15.2248769873
aF1.4661231696862522
aa(lp2228
F8.92863736222
aF0.9401316243349684
aa(lp2229
F24.0897045692
aF0.39276077986394464
aa(lp2230
F20.6387580351
aF0.6044364213344113
aa(lp2231
F8.24381422375
aF2.1709840433494096
aa(lp2232
F9.71870129496
aF0.8106347979551244
aa(lp2233
F6.29739393343
aF3.7667182945052935
aa(lp2234
F16.7382082054
aF0.43254708659082053
aa(lp2235
F9.62223835545
aF0.8253589865778714
aa(lp2236
F23.1474406845
aF0.22496223889528563
aa(lp2237
F5.99101275032
aF3.7017172840837986
aa(lp2238
F30.0011699553
aF0.6256645983930764
aa(lp2239
F22.6902213647
aF0.29086695936947493
aa(lp2240
F10.5786752254
aF0.6919566760553839
aa(lp2241
F21.5862953693
aF0.5270037346773013
aa(lp2242
F9.67034954722
aF0.8179200265753354
aa(lp2243
F19.8314772207
aF0.7851136238878852
aa(lp2244
F17.1608689377
aF1.4698032934921805
aa(lp2245
F7.80371709974
aF1.5488916315464887
aa(lp2246
F10.7918408272
aF0.6866950160347717
aa(lp2247
F26.4841870988
aF0.27564676591564063
aa(lp2248
F7.35036280549
aF3.358361223333918
aa(lp2249
F7.88194936367
aF1.8609122755133711
aa(lp2250
F9.01814695177
aF0.9250619513475931
aa(lp2251
F31.3785410429
aF0.4162142287494207
aa(lp2252
F18.96096819
aF0.7198743633857402
aa(lp2253
F15.073762518
aF0.9471361261036959
aa(lp2254
F4.28917835993
aF5.067093310117558
aa(lp2255
F21.478900865
aF0.46327986031407176
aa(lp2256
F7.61151676327
aF1.9906410340779956
aa(lp2257
F9.91453799148
aF0.7819313343860048
aa(lp2258
F15.687370831
aF2.0766087021359407
aa(lp2259
F4.98145210278
aF3.9697679598223603
aa(lp2260
F5.05654811591
aF3.8356853449365182
aa(lp2261
F8.45198086345
aF2.877900033919654
aa(lp2262
F5.93154897188
aF3.0303792456860688
aa(lp2263
F23.0322792881
aF0.2538573708016595
aa(lp2264
F30.151175805
aF0.5273530355966832
aa(lp2265
F28.1176738081
aF0.5777400526466931
aa(lp2266
F12.1641288916
aF0.6766636463061614
aa(lp2267
F4.78660361901
aF4.214587715030994
aa(lp2268
F16.2447336562
aF0.8886779587170557
aa(lp2269
F24.5751241762
aF0.2918721461037024
aa(lp2270
F17.0754914803
aF1.3421076685938154
aa(lp2271
F23.3794937774
aF0.2731863491832247
aa(lp2272
F6.36052530761
aF3.668154776316679
aa(lp2273
F4.37560745116
aF8.153989218522293
aa(lp2274
F4.39748548841
aF8.160112988481362
aa(lp2275
F8.88421628081
aF0.9482688119230006
aa(lp2276
F17.5942023832
aF0.8437366765897807
aa(lp2277
F28.6842590117
aF0.33931790235234915
aa(lp2278
F7.68782221882
aF1.5818171198943412
aa(lp2279
F9.15409664434
aF0.9012344464918891
aa(lp2280
F5.67118173403
aF6.509777396813784
aa(lp2281
F10.8458000313
aF0.738907610020332
aa(lp2282
F4.18353876364
aF4.172937229870525
aa(lp2283
F8.20280022263
aF1.7307181992500469
aa(lp2284
F15.5316658805
aF2.315455918313164
aa(lp2285
F5.47660138938
aF5.744503696340006
aa(lp2286
F21.6942268461
aF0.5189981759153157
aa(lp2287
F10.9545291766
aF0.7789152357951237
aa(lp2288
F22.8036724716
aF0.2572721523788812
aa(lp2289
F4.26783916411
aF5.0960335131512045
aa(lp2290
F4.73909419965
aF4.267504526365574
aa(lp2291
F14.9987686747
aF0.8306364536308264
aa(lp2292
F6.58651093602
aF2.036391236506642
aa(lp2293
F32.9832437751
aF0.4622071877742607
aa(lp2294
F6.85462832601
aF4.732754361639149
aa(lp2295
F17.2466732824
aF1.4487194792718294
aa(lp2296
F13.9176105838
aF1.0517636102738708
aa(lp2297
F6.75282859089
aF3.098683001371304
aa(lp2298
F5.36842493929
aF4.582061801652117
aa(lp2299
F27.2887107412
aF0.3365477989372227
aa(lp2300
F5.15844009188
aF4.7712894633388245
aa(lp2301
F5.39526706398
aF4.633874873107966
aa(lp2302
F21.3720406616
aF0.41333036436588505
aa(lp2303
F19.6346399552
aF0.6358729256286733
aa(lp2304
F19.1510518961
aF0.6050101148778024
aa(lp2305
F27.5622800663
aF0.5001481734279346
aa(lp2306
F32.3317429682
aF0.45637940973868846
aa(lp2307
F20.2310914149
aF0.898236520842915
aa(lp2308
F4.53107014514
aF4.642933537867272
aa(lp2309
F8.70873099153
aF0.9813542585305322
aa(lp2310
F27.1529460111
aF0.2317938840548562
aa(lp2311
F10.064000891
aF0.7612317891740088
aa(lp2312
F12.6592946207
aF0.8792079674744508
aa(lp2313
F5.23620422107
aF4.842410833595893
aa(lp2314
F15.3010013722
aF1.6132643629870542
aa(lp2315
F4.46377813183
aF6.282578727486932
aa(lp2316
F13.1746170829
aF1.166172439640866
aa(lp2317
F12.5336448313
aF0.904724202138806
aa(lp2318
F32.6558686915
aF0.43666822392462534
aa(lp2319
F24.9455972451
aF0.22109109104959834
aa(lp2320
F7.13365998236
aF3.6082299046789497
aa(lp2321
F24.6979997971
aF0.22400447885864389
aa(lp2322
F26.0908640617
aF0.4619508549526142
aa(lp2323
F9.81613127544
aF0.796293599852793
aa(lp2324
F27.4251542949
aF0.4139680559472809
aa(lp2325
F5.4493546163
aF5.778522367387339
aa(lp2326
F33.6478726494
aF0.38882724735514484
aa(lp2327
F25.8318992715
aF0.3339959770622001
aa(lp2328
F9.86521193182
aF0.7891393002681256
aa(lp2329
F19.4397563973
aF0.6627147578833743
aa(lp2330
F4.14201506264
aF4.266861544852625
aa(lp2331
F20.8456615844
aF0.38049997227431587
aa(lp2332
F18.8666350149
aF0.6338216668868444
aa(lp2333
F32.4934016831
aF0.47386596994118874
aa(lp2334
F25.4482635179
aF0.33770089953186583
aa(lp2335
F16.6549335377
aF0.5099930998341088
aa(lp2336
F7.31379383631
aF2.693885284957671
aa(lp2337
F6.08132801641
aF2.8503014744010833
aa(lp2338
F6.68580341169
aF2.498125539009508
aa(lp2339
F17.3329066488
aF1.2820657374427225
aa(lp2340
F6.42428957382
aF2.1308940386250725
aa(lp2341
F10.0139312348
aF0.7682639679770467
aa(lp2342
F9.38524905587
aF0.8627285061913814
aa(lp2343
F5.6995376427
aF7.798298895015558
aa(lp2344
F5.5591618399
aF4.274143626765996
aa(lp2345
F4.71551661657
aF4.238201070286813
aa(lp2346
F17.9487343693
aF0.40668175655306016
aa(lp2347
F14.1980574046
aF1.3928458230797889
aa(lp2348
F18.1286704313
aF0.3421175844819234
aa(lp2349
F17.4195711821
aF1.4082083206297589
aa(lp2350
F11.7467731264
aF2.519696387386415
aa(lp2351
F4.8105366371
aF4.232487530484407
aa(lp2352
F11.6883314691
aF2.9195452817762235
aa(lp2353
F32.819148035
aF0.5147014138377146
aa(lp2354
F30.3019316841
aF0.48280550591511895
aa(lp2355
F7.53596867728
aF2.0400676156163042
aa(lp2356
F18.4019624042
aF0.3242050988418093
aa(lp2357
F16.5720731719
aF0.438345782958169
aa(lp2358
F7.57364852066
aF2.001390658962872
aa(lp2359
F10.2157169624
aF0.7384045481921407
aa(lp2360
F16.9060087427
aF0.8018620997148637
aa(lp2361
F23.8506022814
aF0.3605142557875871
aa(lp2362
F28.9718187083
aF0.33963186205516693
aa(lp2363
F33.9851925727
aF0.3234142297893627
aa(lp2364
F30.9125307774
aF0.5994647339897319
aa(lp2365
F4.50852750761
aF4.687723206016828
aa(lp2366
F5.87267540098
aF3.9034501491550615
aa(lp2367
F22.4650096431
aF0.30178429846636184
aa(lp2368
F9.33855627449
aF0.8703423269374614
aa(lp2369
F5.90203877799
aF3.9606979330756293
aa(lp2370
F11.1196700733
aF0.9825273236525047
aa(lp2371
F4.24660613344
aF4.0991790156879855
aa(lp2372
F11.9238571997
aF1.5185162189004036
aa(lp2373
F9.29209579552
aF0.8779024518211063
aa(lp2374
F7.64957434708
aF1.5996533730194218
aa(lp2375
F5.2101534538
aF4.7885085198852035
aa(lp2376
F4.66871277104
aF4.306671593884642
aa(lp2377
F7.4984762958
aF2.0573514419226324
aa(lp2378
F6.05107265314
aF2.8771705995609658
aa(lp2379
F13.3066926192
aF1.2730821783415425
aa(lp2380
F5.18423229234
aF4.682034304656296
aa(lp2381
F9.52673285854
aF0.8400647538325375
aa(lp2382
F29.4085724968
aF0.23698617795032884
aa(lp2383
F12.9789576736
aF0.7090684480658794
aa(lp2384
F28.5415512554
aF0.4223243751839934
aa(lp2385
F29.2622611908
aF0.26965566680769953
aa(lp2386
F4.41947291585
aF8.176032583183872
aa(lp2387
F5.28869716839
aF3.7144605026728232
aa(lp2388
F4.35383825986
aF8.238166655540903
aa(lp2389
F8.32645846134
aF2.1436191061762035
aa(lp2390
F26.6166080343
aF0.2727601322697854
aa(lp2391
F10.6315686016
aF0.685486504399644
aa(lp2392
F16.0834966027
aF1.2366416908372628
aa(lp2393
F15.8446367235
aF1.832013643610194
aa(lp2394
F20.0302877799
aF0.9540548619621297
aa(lp2395
F11.2873004896
aF1.7458451832301665
aa(lp2396
F6.99275251837
aF4.5589726496710785
aa(lp2397
F18.2193137835
aF0.29480338991543925
aa(lp2398
F6.45641102169
aF2.1044883639346663
aa(lp2399
F15.6093242099
aF2.2878105811990235
aa(lp2400
F19.732813155
aF0.7045321047558099
aa(lp2401
F10.4215687735
aF0.7116147222366485
aa(lp2402
F4.080501
aF4.305487190387663
aa(lp2403
F4.44157028043
aF6.437906871131005
aa(lp2404
F31.2224288985
aF0.40793081994997105
aa(lp2405
F21.9117114703
aF0.5665352461816295
aa(lp2406
F4.90747135861
aF4.084408566069527
aa(lp2407
F11.6301805663
aF2.9641537517027343
aa(lp2408
F7.06285486237
aF4.488436665424974
aa(lp2409
F7.2774068023
aF2.7021090610940166
aa(lp2410
F5.72803533091
aF7.721197027308228
aa(lp2411
F9.10855387497
aF0.9090971059849284
aa(lp2412
F6.2348891695
aF3.84965303313127
aa(lp2413
F16.1639140858
aF1.052356292519515
aa(lp2414
F8.08097846219
aF2.2226129382045237
aa(lp2415
F24.3312038575
aF0.3795174863673631
aa(lp2416
F6.71923242875
aF3.1221191849888994
aa(lp2417
F8.62229250912
aF1.8221922084229876
aa(lp2418
F4.22547873975
aF4.104811697899923
aa(lp2419
F5.5869576491
aF5.360580509256635
aa(lp2420
F12.1036108374
aF0.8113011514766039
aa(lp2421
F31.6931109169
aF0.50075154167433
aa(lp2422
F11.864534527
aF1.47227875491521
aa(lp2423
F19.9306346068
aF0.8695916702261338
aa(lp2424
F16.9905387864
aF0.9353400064152292
aa(lp2425
F12.9143857449
aF0.7137288965216051
aa(lp2426
F13.043852462
aF1.203570862333956
aa(lp2427
F5.00635936329
aF3.9524759416432764
aa(lp2428
F5.81438617953
aF6.2670028103296715
aa(lp2429
F9.47933617765
aF0.8476396270294632
aa(lp2430
F5.3417163575
aF4.633148922266292
aa(lp2431
F25.5755048355
aF0.3333524072198183
aa(lp2432
F21.8026979804
aF0.5768333906034647
aa(lp2433
F4.93200871541
aF4.077033311258381
aa(lp2434
F18.0384780411
aF0.39941524529417727
aa(lp2435
F10.1143208955
aF0.7520273103121112
aa(lp2436
F6.26606361535
aF3.801172137344254
aa(lp2437
F4.0602
aF4.293128584619767
aa(lp2438
F22.9176908339
aF0.3271869385947673
aa(lp2439
F34.4975235989
aF0.22442462075075414
aa(lp2440
F22.0212700276
aF0.5627097898490924
aa(lp2441
F6.2038698204
aF4.655559415719582
aa(lp2442
F4.83458932029
aF5.397612899808813
aa(lp2443
F13.8483687401
aF1.0567526241390415
aa(lp2444
F34.1551185356
aF0.2897341389560302
aa(lp2445
F8.36809075365
aF2.733479536894361
aa(lp2446
F4.04
aF4.259678077817358
aa(lp2447
F34.3258941283
aF0.2111612493817618
aa(lp2448
F26.221318382
aF0.44913893747285305
aa(lp2449
F27.7000914667
aF0.5943353346755528
aa(lp2450
F6.95796270485
aF4.6975283836320845
aa(lp2451
F21.0546393417
aF0.3275165689080287
aa(lp2452
F4.95666875898
aF4.021005398903224
aa(lp2453
F4.100903505
aF4.302946798129177
aa(lp2454
F19.2468071556
aF0.6825797032809032
aa(lp2455
F29.7033934361
aF0.3035557494534393
aa(lp2456
F9.57436652283
aF0.8326346531740952
aa(lp2457
F26.3524249739
aF0.40112868933834495
aa(lp2458
F6.02096781407
aF3.6506099492872717
aa(lp2459
F16.8218992464
aF0.583974437118376
aa(lp2460
F14.924147935
aF0.9883987091566602
aa(lp2461
F14.6293590268
aF0.8741243682161801
aa(lp2462
F34.6700112169
aF0.20932192251713266
aa(lp2463
F6.39232793415
aF2.8104273585199153
aa(lp2464
F4.55372549587
aF4.60936154052667
aa(lp2465
F11.0093018225
aF0.7876300336049082
aa(lp2466
F5.96120671674
aF3.7420627544683303
aa(lp2467
F11.1752684237
aF1.2291555502024363
aa(lp2468
F11.8055069921
aF2.1182752363692146
aa(lp2469
F5.75667550757
aF6.377692883824623
aa(lp2470
F33.4804702979
aF0.4186486816518901
aa(lp2471
F8.28503329487
aF2.713218065526542
aa(lp2472
F14.8498984428
aF1.0032324388871994
aa(lp2473
F23.263177888
aF0.24920566107743813
aa(lp2474
F8.40993120741
aF2.8082272656716536
aa(lp2475
F6.55374222489
aF2.053212724250507
aa(lp2476
F30.758737092
aF0.544076293444212
aa(lp2477
F13.7109167992
aF0.8907959998528868
aa(lp2478
F6.52113654218
aF2.0706607218843747
aa(lp2479
F13.2404901683
aF1.122605768885602
aa(lp2480
F12.7225910938
aF0.8721936753377177
aa(lp2481
F4.31062425173
aF6.783993245114861
aa(lp2482
F19.3430411913
aF0.7688921252604369
aa(lp2483
F8.16199027128
aF2.1949245262896486
aa(lp2484
F15.7658076851
aF1.8582546837626503
aa(lp2485
F7.72626132991
aF1.57078637681545
aa(lp2486
F12.8501350695
aF0.6055562072125169
aa(lp2487
F10.318129525
aF0.7249235392376792
aa(lp2488
F5.03139116011
aF3.1393384342836166
aa(lp2489
F6.11173465649
aF2.815128073135277
aa(lp2490
F12.4712883893
aF0.9185768481277721
aa(lp2491
F15.454393911
aF2.142664090989134
aa(lp2492
F5.31514065423
aF3.679262375281681
aa(lp2493
F13.6427032828
aF0.7438360017865984
aa(lp2494
F13.9871986367
aF1.0192938217339984
aa(lp2495
F17.506669038
aF1.1271315757599583
aa(lp2496
F4.59937659397
aF4.44647537361495
aa(lp2497
F14.4841553692
aF1.2950911598202075
aa(lp2498
F20.4339081063
aF0.7921970208643185
aa(lp2499
F23.4963912463
aF0.23753262209196457
aa(lp2500
F26.7496910745
aF0.2963920323192127
aa(lp2501
F33.8161120127
aF0.4076364805610633
aa(lp2502
F11.4574579554
aF2.7761455459164064
aa(lp2503
F33.148159994
aF0.4813525873579488
aa(lp2504
F21.1599125385
aF0.32257888636518506
aa(lp2505
F11.343736992
aF2.0960282370256405
aa(lp2506
F11.2311447658
aF1.447831335229203
aa(lp2507
F8.79603601972
aF0.9646511854966502
aa(lp2508
F8.97328054903
aF0.9321740066370342
aa(lp2509
F7.20517492369
aF4.3464277109818
aa(lp2510
F31.5354337482
aF0.3858070318438572
aa(lp2511
F5.84345811043
aF4.958705190835221
aa(lp2512
F7.84273568524
aF1.5420771462582947
aa(lp2513
F23.7319425685
aF0.4198349791286767
aa(lp2514
F12.0433938681
aF1.007996626868494
aa(lp2515
F10.3697201726
aF0.7181508034702272
aa(lp2516
F9.19986712756
aF0.8934200988884762
aa(lp2517
F5.08183085649
aF4.829306200507348
aa(lp2518
F6.92334597497
aF4.821949048557179
aa(lp2519
F11.5147452452
aF2.6976621840810417
aa(lp2520
F4.12140802252
aF4.2911392600018745
aa(lp2521
F4.16272513795
aF4.223791322586226
aa(lp2522
F6.78659273385
aF3.0540158601964946
aa(lp2523
F5.26238524217
aF3.7241088000055487
aa(lp2524
F28.2582621771
aF0.6269641493704367
aa(lp2525
F16.4075871111
aF0.7331551868962796
aa(lp2526
F12.5963130554
aF0.8914939707082926
aa(lp2527
F8.49424076777
aF3.0296883851228165
aa(lp2528
F10.7381500768
aF0.6726639163654826
aa(lp2529
F22.1313763777
aF0.4731653534288473
aa(lp2530
F13.1090717243
aF1.1910249413099585
aa(lp2531
F28.399553488
aF0.4327002222264692
aa(lp2532
F4.64548534432
aF4.3404429836694876
aa(lp2533
F25.0703252313
aF0.27024209203424954
aa(lp2534
F7.46117044358
aF2.066758923777408
aa(lp2535
F14.4120948947
aF1.1168447448346364
aa(lp2536
F18.3104103524
aF0.32612706778947825
aa(lp2537
F5.53150431831
aF5.649251322386419
aa(lp2538
F20.3322468719
aF0.8887814859108802
aa(lp2539
F25.7033823597
aF0.3385755076836063
aa(lp2540
F4.57649412335
aF4.50525262800072
aa(lp2541
F16.0034792067
aF1.2699363682129619
aa(lp2542
F18.7727711591
aF0.6439696399417533
aa(lp2543
F6.88890146764
aF4.805171436231109
aa(lp2544
F14.2690476916
aF1.1579450883648772
aa(lp2545
F6.14229332977
aF3.6471458963561836
aa(lp2546
F24.8214897961
aF0.19986800835470936
aa(lp2547
F9.2458664632
aF0.8857215809177345
aa(lp2548
F11.0643483316
aF0.998760290741725
aa(lp2549
F4.85876226689
aF5.4214941457318595
aa(lp2550
F25.1956768574
aF0.34117368173150076
aa(lp2551
F20.1304392188
aF0.9219531144254451
aa(lp2552
F10.2667955473
aF0.7316436459426152
aa(lp2553
F5.10724001077
aF4.840436642180983
aa(lp2554
F4.48609702249
aF4.753669894965777
aa(lp2555
F27.9777848836
aF0.6862876441253452
aa(lp2556
F18.5864420773
aF0.42240706263156025
aa(lp2557
F6.4886930768
aF2.090663458671969
aa(lp2558
F6.3288809031
aF3.7534391512111993
aa(lp2559
F7.09816913668
aF3.5575600082962735
aa(lp2560
F12.2249495361
aF0.671650691466377
aa(lp2561
F24.4528598768
aF0.3755196311389698
aa(lp2562
F8.53671197161
aF3.1462875851576864
aa(lp2563
F11.9834764857
aF1.2360321291000436
aa(lp2564
F9.96411068144
aF0.775136715222107
aa(lp2565
F4.76278967065
aF4.214560727083427
aa(lp2566
F14.0571346299
aF1.2172415741616276
aa(lp2567
F8.66540397167
aF1.9162030296311423
aa(lp2568
F11.400455677
aF2.8439659641086816
aa(lp2569
F12.2860742838
aF0.9754810380791453
aa(lp2570
F20.5360776468
aF0.6067024582820495
aa(lp2571
F22.5773346913
aF0.33898470137876063
aa(lp2572
F4.20445645746
aF4.152612596487453
aa(lp2573
F13.5072926737
aF1.2581611319644876
aa(lp2574
F10.4736766174
aF0.7049232039967107
aa(lp2575
F7.38711461952
aF3.3310306905410845
aa(lp2576
F8.00077073557
aF2.2639198262864064
aa(lp2577
F5.61489243735
aF6.744734771135632
aa(lp2578
F11.5723189714
aF3.015628425346182
aa(lp2579
F7.96096590604
aF1.8283101265921826
aa(lp2580
F25.9610587679
aF0.4685942611726639
aa(lp2581
F21.2657121011
aF0.4173343493626661
aa(lp2582
F25.3216552417
aF0.2677113180142891
aa(lp2583
F14.3403929301
aF0.79754540597211
aa(lp2584
F15.3775063791
aF1.784575091886016
aa(lp2585
F6.65254070815
aF2.013057941375754
aa(lp2586
F12.4092421784
aF0.9471646751567483
aa(lp2587
F18.4939722162
aF0.36826324098694985
aa(lp2588
F23.6138732025
aF0.32532068181814466
aa(lp2589
F5.13277621083
aF4.815945604426102
aa(lp2590
F4.6920563349
aF3.540639099432579
aa(lp2591
F19.0557730309
aF0.614420354046676
aa(lp2592
F32.1708885256
aF0.44706801965743687
aa(lp2593
F9.76729480144
aF0.803491341626502
aa(lp2594
F4.88305607822
aF5.526730747963285
aa(lp2595
F5.50398439633
aF4.568327879620988
aa(lp2596
F20.9498898923
aF0.25958367573987245
aa(lp2597
F31.0670934313
aF0.6037934947503952
aa(lp2598
F6.82052569752
aF4.797896791921996
aa(lp2599
F22.3532434259
aF0.34542838860062586
aa(lp2600
F20.7419518252
aF0.44656701862067205
aa(lp2601
F5.64296689953
aF7.912965259773075
aa(lp2602
F29.1166778018
aF0.30562840215642195
aa(lp2603
F9.06323768653
aF0.9171098828238835
aa(lp2604
F5.4222433993
aF4.533952445900383
aa(lp2605
F17.6821733951
aF0.8112662423142321
aa(lp2606
F10.5260450004
aF0.6984663632879016
aa(lp2607
F19.5369551793
aF0.49206826021158256
aa(lp2608
F29.5556153593
aF0.29944469534354873
aa(lp2609
F27.838591924
aF0.5909306283836017
aa(lp2610
F14.556576146
aF1.2554031400208647
aa(lp2611
F10.6847264446
aF0.6790556384066917
aa(lp2612
F9.43217530115
aF0.8551610535688611
aa(lp2613
F6.17300479642
aF4.649198240602759
aa(lp2614
F30.6057085492
aF0.5854706233447654
aa(lp2615
F32.0108343538
aF0.5250622343667983
aa(lp2616
F14.1274203031
aF1.403371290444398
aa(lp2617
F8.84001619982
aF0.9565425691838211
aa(lp2618
F15.9238599072
aF1.6136910039075247
aa(lp2619
F16.3259573245
aF0.7357213993560996
aa(lp2620
F12.7862040493
aF0.6116628089872639
aa(lp2621
F10.9000290315
aF0.7637854043104624
aa(lp2622
F16.4896250466
aF0.5160453375794894
aa(lp2623
F7.92135911049
aF1.840004231243694
aa(lp2624
F31.8515764715
aF0.4642840654840758
aa(lp2625
F8.1213833545
aF2.214904071288887
aa(lp2626
F18.6793742877
aF0.4876837556415123
aa(lp2627
F7.76489263656
aF1.5669739680996442
aatp2628
Rp2629
aatp2630
Rp2631
.